
USonic_Car.elf:     file format elf32-avr

Sections:
Idx Name          Size      VMA       LMA       File off  Algn
  0 .text         00001642  00000000  00000000  00000094  2**1
                  CONTENTS, ALLOC, LOAD, READONLY, CODE
  1 .data         0000000c  00800060  00001642  000016d6  2**0
                  CONTENTS, ALLOC, LOAD, DATA
  2 .bss          00000017  0080006c  0080006c  000016e2  2**0
                  ALLOC
  3 .comment      00000030  00000000  00000000  000016e2  2**0
                  CONTENTS, READONLY
  4 .note.gnu.avr.deviceinfo 0000003c  00000000  00000000  00001714  2**2
                  CONTENTS, READONLY
  5 .debug_aranges 00000210  00000000  00000000  00001750  2**0
                  CONTENTS, READONLY, DEBUGGING
  6 .debug_info   00002acc  00000000  00000000  00001960  2**0
                  CONTENTS, READONLY, DEBUGGING
  7 .debug_abbrev 00000d95  00000000  00000000  0000442c  2**0
                  CONTENTS, READONLY, DEBUGGING
  8 .debug_line   00001874  00000000  00000000  000051c1  2**0
                  CONTENTS, READONLY, DEBUGGING
  9 .debug_frame  00000478  00000000  00000000  00006a38  2**2
                  CONTENTS, READONLY, DEBUGGING
 10 .debug_str    00000af3  00000000  00000000  00006eb0  2**0
                  CONTENTS, READONLY, DEBUGGING
 11 .debug_loc    00001aec  00000000  00000000  000079a3  2**0
                  CONTENTS, READONLY, DEBUGGING
 12 .debug_ranges 00000178  00000000  00000000  0000948f  2**0
                  CONTENTS, READONLY, DEBUGGING

Disassembly of section .text:

00000000 <__vectors>:
       0:	0c 94 31 00 	jmp	0x62	; 0x62 <__ctors_end>
       4:	0c 94 4e 00 	jmp	0x9c	; 0x9c <__bad_interrupt>
       8:	0c 94 4e 00 	jmp	0x9c	; 0x9c <__bad_interrupt>
       c:	0c 94 4e 00 	jmp	0x9c	; 0x9c <__bad_interrupt>
      10:	0c 94 4e 00 	jmp	0x9c	; 0x9c <__bad_interrupt>
      14:	0c 94 4e 00 	jmp	0x9c	; 0x9c <__bad_interrupt>
      18:	0c 94 4e 00 	jmp	0x9c	; 0x9c <__bad_interrupt>
      1c:	0c 94 4e 00 	jmp	0x9c	; 0x9c <__bad_interrupt>
      20:	0c 94 4e 00 	jmp	0x9c	; 0x9c <__bad_interrupt>
      24:	0c 94 4e 00 	jmp	0x9c	; 0x9c <__bad_interrupt>
      28:	0c 94 4e 00 	jmp	0x9c	; 0x9c <__bad_interrupt>
      2c:	0c 94 4e 00 	jmp	0x9c	; 0x9c <__bad_interrupt>
      30:	0c 94 4e 00 	jmp	0x9c	; 0x9c <__bad_interrupt>
      34:	0c 94 4e 00 	jmp	0x9c	; 0x9c <__bad_interrupt>
      38:	0c 94 4e 00 	jmp	0x9c	; 0x9c <__bad_interrupt>
      3c:	0c 94 4e 00 	jmp	0x9c	; 0x9c <__bad_interrupt>
      40:	0c 94 4e 00 	jmp	0x9c	; 0x9c <__bad_interrupt>
      44:	0c 94 4e 00 	jmp	0x9c	; 0x9c <__bad_interrupt>
      48:	0c 94 4e 00 	jmp	0x9c	; 0x9c <__bad_interrupt>
      4c:	0c 94 4e 00 	jmp	0x9c	; 0x9c <__bad_interrupt>
      50:	0c 94 4e 00 	jmp	0x9c	; 0x9c <__bad_interrupt>
      54:	a2 06       	cpc	r10, r18
      56:	ac 06       	cpc	r10, r28
      58:	b6 06       	cpc	r11, r22
      5a:	c0 06       	cpc	r12, r16
      5c:	ca 06       	cpc	r12, r26
      5e:	d4 06       	cpc	r13, r20
      60:	de 06       	cpc	r13, r30

00000062 <__ctors_end>:
      62:	11 24       	eor	r1, r1
      64:	1f be       	out	0x3f, r1	; 63
      66:	cf e5       	ldi	r28, 0x5F	; 95
      68:	d8 e0       	ldi	r29, 0x08	; 8
      6a:	de bf       	out	0x3e, r29	; 62
      6c:	cd bf       	out	0x3d, r28	; 61

0000006e <__do_copy_data>:
      6e:	10 e0       	ldi	r17, 0x00	; 0
      70:	a0 e6       	ldi	r26, 0x60	; 96
      72:	b0 e0       	ldi	r27, 0x00	; 0
      74:	e2 e4       	ldi	r30, 0x42	; 66
      76:	f6 e1       	ldi	r31, 0x16	; 22
      78:	02 c0       	rjmp	.+4      	; 0x7e <__do_copy_data+0x10>
      7a:	05 90       	lpm	r0, Z+
      7c:	0d 92       	st	X+, r0
      7e:	ac 36       	cpi	r26, 0x6C	; 108
      80:	b1 07       	cpc	r27, r17
      82:	d9 f7       	brne	.-10     	; 0x7a <__do_copy_data+0xc>

00000084 <__do_clear_bss>:
      84:	20 e0       	ldi	r18, 0x00	; 0
      86:	ac e6       	ldi	r26, 0x6C	; 108
      88:	b0 e0       	ldi	r27, 0x00	; 0
      8a:	01 c0       	rjmp	.+2      	; 0x8e <.do_clear_bss_start>

0000008c <.do_clear_bss_loop>:
      8c:	1d 92       	st	X+, r1

0000008e <.do_clear_bss_start>:
      8e:	a3 38       	cpi	r26, 0x83	; 131
      90:	b2 07       	cpc	r27, r18
      92:	e1 f7       	brne	.-8      	; 0x8c <.do_clear_bss_loop>
      94:	0e 94 ba 04 	call	0x974	; 0x974 <main>
      98:	0c 94 1f 0b 	jmp	0x163e	; 0x163e <_exit>

0000009c <__bad_interrupt>:
      9c:	0c 94 00 00 	jmp	0	; 0x0 <__vectors>

000000a0 <LCD_SendCommand>:
#include "../../Mcal/DIO/DIO.h"
#include "../../MCAL/Timer/Timer.h"
#include "LCD.h"

uint8_t LCD_SendCommand(uint8_t CMD)
{
      a0:	cf 93       	push	r28
      a2:	c8 2f       	mov	r28, r24
	uint8_t ErrRetVal = OperationStarted;
	/*setting the functions state*/
	uint8_t static State = OperationStarted;
	/*declaring a variable for the timer return*/
	uint8_t TimerRetVal = 1;
	switch(State)
      a4:	80 91 62 00 	lds	r24, 0x0062	; 0x800062 <State.1700>
      a8:	83 30       	cpi	r24, 0x03	; 3
      aa:	09 f4       	brne	.+2      	; 0xae <LCD_SendCommand+0xe>
      ac:	a6 c0       	rjmp	.+332    	; 0x1fa <LCD_SendCommand+0x15a>
      ae:	38 f4       	brcc	.+14     	; 0xbe <LCD_SendCommand+0x1e>
      b0:	81 30       	cpi	r24, 0x01	; 1
      b2:	09 f4       	brne	.+2      	; 0xb6 <LCD_SendCommand+0x16>
      b4:	55 c0       	rjmp	.+170    	; 0x160 <LCD_SendCommand+0xc0>
      b6:	82 30       	cpi	r24, 0x02	; 2
      b8:	09 f4       	brne	.+2      	; 0xbc <LCD_SendCommand+0x1c>
      ba:	64 c0       	rjmp	.+200    	; 0x184 <LCD_SendCommand+0xe4>
      bc:	be c0       	rjmp	.+380    	; 0x23a <LCD_SendCommand+0x19a>
      be:	84 30       	cpi	r24, 0x04	; 4
      c0:	09 f4       	brne	.+2      	; 0xc4 <LCD_SendCommand+0x24>
      c2:	ad c0       	rjmp	.+346    	; 0x21e <LCD_SendCommand+0x17e>
      c4:	8f 3f       	cpi	r24, 0xFF	; 255
      c6:	09 f0       	breq	.+2      	; 0xca <LCD_SendCommand+0x2a>
      c8:	b8 c0       	rjmp	.+368    	; 0x23a <LCD_SendCommand+0x19a>
	{
	case OperationStarted:
		/*sending control signals with configurations of selection of control reg. and write process*/
		DIO_WritePin(LCD_PORT, LCD_RS, PIN_LOW);
      ca:	40 e0       	ldi	r20, 0x00	; 0
      cc:	61 e0       	ldi	r22, 0x01	; 1
      ce:	80 e0       	ldi	r24, 0x00	; 0
      d0:	0e 94 54 05 	call	0xaa8	; 0xaa8 <DIO_WritePin>
		DIO_WritePin(LCD_PORT, LCD_RW, PIN_LOW);
      d4:	40 e0       	ldi	r20, 0x00	; 0
      d6:	62 e0       	ldi	r22, 0x02	; 2
      d8:	80 e0       	ldi	r24, 0x00	; 0
      da:	0e 94 54 05 	call	0xaa8	; 0xaa8 <DIO_WritePin>

		/*copying upper nibble of the command to the pins*/
		DIO_WritePin(LCD_PORT, LCD_D4, READ_BIT(CMD, 4));
      de:	4c 2f       	mov	r20, r28
      e0:	40 71       	andi	r20, 0x10	; 16
      e2:	50 e0       	ldi	r21, 0x00	; 0
      e4:	55 95       	asr	r21
      e6:	47 95       	ror	r20
      e8:	55 95       	asr	r21
      ea:	47 95       	ror	r20
      ec:	55 95       	asr	r21
      ee:	47 95       	ror	r20
      f0:	55 95       	asr	r21
      f2:	47 95       	ror	r20
      f4:	64 e0       	ldi	r22, 0x04	; 4
      f6:	80 e0       	ldi	r24, 0x00	; 0
      f8:	0e 94 54 05 	call	0xaa8	; 0xaa8 <DIO_WritePin>
		DIO_WritePin(LCD_PORT, LCD_D5, READ_BIT(CMD, 5));
      fc:	4c 2f       	mov	r20, r28
      fe:	40 72       	andi	r20, 0x20	; 32
     100:	50 e0       	ldi	r21, 0x00	; 0
     102:	55 95       	asr	r21
     104:	47 95       	ror	r20
     106:	55 95       	asr	r21
     108:	47 95       	ror	r20
     10a:	55 95       	asr	r21
     10c:	47 95       	ror	r20
     10e:	55 95       	asr	r21
     110:	47 95       	ror	r20
     112:	55 95       	asr	r21
     114:	47 95       	ror	r20
     116:	65 e0       	ldi	r22, 0x05	; 5
     118:	80 e0       	ldi	r24, 0x00	; 0
     11a:	0e 94 54 05 	call	0xaa8	; 0xaa8 <DIO_WritePin>
		DIO_WritePin(LCD_PORT, LCD_D6, READ_BIT(CMD, 6));
     11e:	4c 2f       	mov	r20, r28
     120:	40 74       	andi	r20, 0x40	; 64
     122:	50 e0       	ldi	r21, 0x00	; 0
     124:	04 2e       	mov	r0, r20
     126:	45 2f       	mov	r20, r21
     128:	00 0c       	add	r0, r0
     12a:	44 1f       	adc	r20, r20
     12c:	55 0b       	sbc	r21, r21
     12e:	00 0c       	add	r0, r0
     130:	44 1f       	adc	r20, r20
     132:	55 1f       	adc	r21, r21
     134:	66 e0       	ldi	r22, 0x06	; 6
     136:	80 e0       	ldi	r24, 0x00	; 0
     138:	0e 94 54 05 	call	0xaa8	; 0xaa8 <DIO_WritePin>
		DIO_WritePin(LCD_PORT, LCD_D7, READ_BIT(CMD, 7));
     13c:	4c 2f       	mov	r20, r28
     13e:	44 1f       	adc	r20, r20
     140:	44 27       	eor	r20, r20
     142:	44 1f       	adc	r20, r20
     144:	67 e0       	ldi	r22, 0x07	; 7
     146:	80 e0       	ldi	r24, 0x00	; 0
     148:	0e 94 54 05 	call	0xaa8	; 0xaa8 <DIO_WritePin>


		/*writing data to the register by pulling the enable pin high for 1 Us*/
		DIO_WritePin(LCD_PORT, LCD_EN, PIN_HIGH);
     14c:	41 e0       	ldi	r20, 0x01	; 1
     14e:	63 e0       	ldi	r22, 0x03	; 3
     150:	80 e0       	ldi	r24, 0x00	; 0
     152:	0e 94 54 05 	call	0xaa8	; 0xaa8 <DIO_WritePin>
		/*set status of the function*/
		State = Sending_First_Nibble;
     156:	81 e0       	ldi	r24, 0x01	; 1
     158:	80 93 62 00 	sts	0x0062, r24	; 0x800062 <State.1700>
#include "LCD.h"

uint8_t LCD_SendCommand(uint8_t CMD)
{
	/*function starting*/
	uint8_t ErrRetVal = OperationStarted;
     15c:	8f ef       	ldi	r24, 0xFF	; 255

		/*writing data to the register by pulling the enable pin high for 1 Us*/
		DIO_WritePin(LCD_PORT, LCD_EN, PIN_HIGH);
		/*set status of the function*/
		State = Sending_First_Nibble;
		break;
     15e:	74 c0       	rjmp	.+232    	; 0x248 <LCD_SendCommand+0x1a8>
	case Sending_First_Nibble:
		/*start timer delay in background*/
		TimerRetVal = TIM_DelayUs(TIMER_2,3);//1
     160:	43 e0       	ldi	r20, 0x03	; 3
     162:	50 e0       	ldi	r21, 0x00	; 0
     164:	60 e0       	ldi	r22, 0x00	; 0
     166:	70 e0       	ldi	r23, 0x00	; 0
     168:	82 e0       	ldi	r24, 0x02	; 2
     16a:	0e 94 a5 07 	call	0xf4a	; 0xf4a <TIM_DelayUs>
		if(TimerRetVal == TIMER_E_SUCCESS)
     16e:	81 11       	cpse	r24, r1
     170:	66 c0       	rjmp	.+204    	; 0x23e <LCD_SendCommand+0x19e>
		{
			/*if timer delay function finished correctly pull enable pin low*/
			DIO_WritePin(LCD_PORT, LCD_EN, PIN_LOW);
     172:	40 e0       	ldi	r20, 0x00	; 0
     174:	63 e0       	ldi	r22, 0x03	; 3
     176:	0e 94 54 05 	call	0xaa8	; 0xaa8 <DIO_WritePin>
			/*update the function's state*/
			State = First_Nibble_Sent;
     17a:	82 e0       	ldi	r24, 0x02	; 2
     17c:	80 93 62 00 	sts	0x0062, r24	; 0x800062 <State.1700>
#include "LCD.h"

uint8_t LCD_SendCommand(uint8_t CMD)
{
	/*function starting*/
	uint8_t ErrRetVal = OperationStarted;
     180:	8f ef       	ldi	r24, 0xFF	; 255
     182:	62 c0       	rjmp	.+196    	; 0x248 <LCD_SendCommand+0x1a8>
			State = First_Nibble_Sent;
		}
		break;
	case First_Nibble_Sent:
		/*sending control signals with configurations of selection of control reg. and write process*/
		DIO_WritePin(LCD_PORT,LCD_RS,PIN_LOW);
     184:	40 e0       	ldi	r20, 0x00	; 0
     186:	61 e0       	ldi	r22, 0x01	; 1
     188:	80 e0       	ldi	r24, 0x00	; 0
     18a:	0e 94 54 05 	call	0xaa8	; 0xaa8 <DIO_WritePin>
		DIO_WritePin(LCD_PORT,LCD_RW,PIN_LOW);
     18e:	40 e0       	ldi	r20, 0x00	; 0
     190:	62 e0       	ldi	r22, 0x02	; 2
     192:	80 e0       	ldi	r24, 0x00	; 0
     194:	0e 94 54 05 	call	0xaa8	; 0xaa8 <DIO_WritePin>

		/*copying lower nibble of the command to the pins*/

		DIO_WritePin(LCD_PORT,LCD_D4,READ_BIT(CMD,0));
     198:	4c 2f       	mov	r20, r28
     19a:	41 70       	andi	r20, 0x01	; 1
     19c:	64 e0       	ldi	r22, 0x04	; 4
     19e:	80 e0       	ldi	r24, 0x00	; 0
     1a0:	0e 94 54 05 	call	0xaa8	; 0xaa8 <DIO_WritePin>
		DIO_WritePin(LCD_PORT,LCD_D5,READ_BIT(CMD,1));
     1a4:	4c 2f       	mov	r20, r28
     1a6:	42 70       	andi	r20, 0x02	; 2
     1a8:	50 e0       	ldi	r21, 0x00	; 0
     1aa:	55 95       	asr	r21
     1ac:	47 95       	ror	r20
     1ae:	65 e0       	ldi	r22, 0x05	; 5
     1b0:	80 e0       	ldi	r24, 0x00	; 0
     1b2:	0e 94 54 05 	call	0xaa8	; 0xaa8 <DIO_WritePin>
		DIO_WritePin(LCD_PORT,LCD_D6,READ_BIT(CMD,2));
     1b6:	4c 2f       	mov	r20, r28
     1b8:	44 70       	andi	r20, 0x04	; 4
     1ba:	50 e0       	ldi	r21, 0x00	; 0
     1bc:	55 95       	asr	r21
     1be:	47 95       	ror	r20
     1c0:	55 95       	asr	r21
     1c2:	47 95       	ror	r20
     1c4:	66 e0       	ldi	r22, 0x06	; 6
     1c6:	80 e0       	ldi	r24, 0x00	; 0
     1c8:	0e 94 54 05 	call	0xaa8	; 0xaa8 <DIO_WritePin>
		DIO_WritePin(LCD_PORT,LCD_D7,READ_BIT(CMD,3));
     1cc:	c8 70       	andi	r28, 0x08	; 8
     1ce:	4c 2f       	mov	r20, r28
     1d0:	50 e0       	ldi	r21, 0x00	; 0
     1d2:	55 95       	asr	r21
     1d4:	47 95       	ror	r20
     1d6:	55 95       	asr	r21
     1d8:	47 95       	ror	r20
     1da:	55 95       	asr	r21
     1dc:	47 95       	ror	r20
     1de:	67 e0       	ldi	r22, 0x07	; 7
     1e0:	80 e0       	ldi	r24, 0x00	; 0
     1e2:	0e 94 54 05 	call	0xaa8	; 0xaa8 <DIO_WritePin>
		/*writing data to the register by pulling the enable pin high for 1 Us*/
		DIO_WritePin(LCD_PORT,LCD_EN,PIN_HIGH);
     1e6:	41 e0       	ldi	r20, 0x01	; 1
     1e8:	63 e0       	ldi	r22, 0x03	; 3
     1ea:	80 e0       	ldi	r24, 0x00	; 0
     1ec:	0e 94 54 05 	call	0xaa8	; 0xaa8 <DIO_WritePin>
		/*set status of the function*/
		State = Sending_Second_Nibble;
     1f0:	83 e0       	ldi	r24, 0x03	; 3
     1f2:	80 93 62 00 	sts	0x0062, r24	; 0x800062 <State.1700>
#include "LCD.h"

uint8_t LCD_SendCommand(uint8_t CMD)
{
	/*function starting*/
	uint8_t ErrRetVal = OperationStarted;
     1f6:	8f ef       	ldi	r24, 0xFF	; 255
		DIO_WritePin(LCD_PORT,LCD_D7,READ_BIT(CMD,3));
		/*writing data to the register by pulling the enable pin high for 1 Us*/
		DIO_WritePin(LCD_PORT,LCD_EN,PIN_HIGH);
		/*set status of the function*/
		State = Sending_Second_Nibble;
		break;
     1f8:	27 c0       	rjmp	.+78     	; 0x248 <LCD_SendCommand+0x1a8>
	case Sending_Second_Nibble:
		/*start timer delay in background*/
		TimerRetVal = TIM_DelayUs(TIMER_2,3);//1
     1fa:	43 e0       	ldi	r20, 0x03	; 3
     1fc:	50 e0       	ldi	r21, 0x00	; 0
     1fe:	60 e0       	ldi	r22, 0x00	; 0
     200:	70 e0       	ldi	r23, 0x00	; 0
     202:	82 e0       	ldi	r24, 0x02	; 2
     204:	0e 94 a5 07 	call	0xf4a	; 0xf4a <TIM_DelayUs>
		if(TimerRetVal == ((uint8_t)TIMER_E_SUCCESS))
     208:	81 11       	cpse	r24, r1
     20a:	1b c0       	rjmp	.+54     	; 0x242 <LCD_SendCommand+0x1a2>
		{
			/*if timer delay function finished correctly pull enable pin low*/
			DIO_WritePin(LCD_PORT,LCD_EN,PIN_LOW);
     20c:	40 e0       	ldi	r20, 0x00	; 0
     20e:	63 e0       	ldi	r22, 0x03	; 3
     210:	0e 94 54 05 	call	0xaa8	; 0xaa8 <DIO_WritePin>
			/*reset the function's state*/
			State = Second_Nibble_Sent;
     214:	84 e0       	ldi	r24, 0x04	; 4
     216:	80 93 62 00 	sts	0x0062, r24	; 0x800062 <State.1700>
#include "LCD.h"

uint8_t LCD_SendCommand(uint8_t CMD)
{
	/*function starting*/
	uint8_t ErrRetVal = OperationStarted;
     21a:	8f ef       	ldi	r24, 0xFF	; 255
     21c:	15 c0       	rjmp	.+42     	; 0x248 <LCD_SendCommand+0x1a8>
			State = Second_Nibble_Sent;
		}
		break;
	case Second_Nibble_Sent:
		/*start timer delay in background*/
		TimerRetVal = TIM_DelayMs(TIMER_2,5);//2
     21e:	45 e0       	ldi	r20, 0x05	; 5
     220:	50 e0       	ldi	r21, 0x00	; 0
     222:	60 e0       	ldi	r22, 0x00	; 0
     224:	70 e0       	ldi	r23, 0x00	; 0
     226:	82 e0       	ldi	r24, 0x02	; 2
     228:	0e 94 55 08 	call	0x10aa	; 0x10aa <TIM_DelayMs>
		if(TimerRetVal == ((uint8_t)TIMER_E_SUCCESS))
     22c:	81 11       	cpse	r24, r1
     22e:	0b c0       	rjmp	.+22     	; 0x246 <LCD_SendCommand+0x1a6>
		{
			/*reset the function's state*/
			State = OperationStarted;
     230:	8f ef       	ldi	r24, 0xFF	; 255
     232:	80 93 62 00 	sts	0x0062, r24	; 0x800062 <State.1700>
			/*process finished successfully*/
			ErrRetVal = OperationSuccess;
     236:	80 e0       	ldi	r24, 0x00	; 0
     238:	07 c0       	rjmp	.+14     	; 0x248 <LCD_SendCommand+0x1a8>
		}
		break;
	default:
		ErrRetVal = OperationFail;
     23a:	81 e0       	ldi	r24, 0x01	; 1
     23c:	05 c0       	rjmp	.+10     	; 0x248 <LCD_SendCommand+0x1a8>
#include "LCD.h"

uint8_t LCD_SendCommand(uint8_t CMD)
{
	/*function starting*/
	uint8_t ErrRetVal = OperationStarted;
     23e:	8f ef       	ldi	r24, 0xFF	; 255
     240:	03 c0       	rjmp	.+6      	; 0x248 <LCD_SendCommand+0x1a8>
     242:	8f ef       	ldi	r24, 0xFF	; 255
     244:	01 c0       	rjmp	.+2      	; 0x248 <LCD_SendCommand+0x1a8>
     246:	8f ef       	ldi	r24, 0xFF	; 255
	default:
		ErrRetVal = OperationFail;
	}
	/*return from function*/
return ErrRetVal;
}
     248:	cf 91       	pop	r28
     24a:	08 95       	ret

0000024c <LCD_SendData>:
uint8_t LCD_SendData(uint8_t Character)
{
     24c:	cf 93       	push	r28
     24e:	c8 2f       	mov	r28, r24
	uint8_t ErrRetVal = OperationStarted;
	/*setting the functions state*/
	uint8_t static State = OperationStarted;
	/*declaring a variable for the timer return*/
	uint8_t TimerRetVal = 1;
	switch (State) {
     250:	80 91 61 00 	lds	r24, 0x0061	; 0x800061 <State.1713>
     254:	83 30       	cpi	r24, 0x03	; 3
     256:	09 f4       	brne	.+2      	; 0x25a <LCD_SendData+0xe>
     258:	a6 c0       	rjmp	.+332    	; 0x3a6 <LCD_SendData+0x15a>
     25a:	38 f4       	brcc	.+14     	; 0x26a <LCD_SendData+0x1e>
     25c:	81 30       	cpi	r24, 0x01	; 1
     25e:	09 f4       	brne	.+2      	; 0x262 <LCD_SendData+0x16>
     260:	55 c0       	rjmp	.+170    	; 0x30c <LCD_SendData+0xc0>
     262:	82 30       	cpi	r24, 0x02	; 2
     264:	09 f4       	brne	.+2      	; 0x268 <LCD_SendData+0x1c>
     266:	64 c0       	rjmp	.+200    	; 0x330 <LCD_SendData+0xe4>
     268:	bd c0       	rjmp	.+378    	; 0x3e4 <LCD_SendData+0x198>
     26a:	84 30       	cpi	r24, 0x04	; 4
     26c:	09 f4       	brne	.+2      	; 0x270 <LCD_SendData+0x24>
     26e:	ad c0       	rjmp	.+346    	; 0x3ca <LCD_SendData+0x17e>
     270:	8f 3f       	cpi	r24, 0xFF	; 255
     272:	09 f0       	breq	.+2      	; 0x276 <LCD_SendData+0x2a>
     274:	b7 c0       	rjmp	.+366    	; 0x3e4 <LCD_SendData+0x198>
	case OperationStarted:
		/*sending control signals with configurations of selection of control reg. and write process*/
		DIO_WritePin(LCD_PORT, LCD_RS, PIN_HIGH);
     276:	41 e0       	ldi	r20, 0x01	; 1
     278:	61 e0       	ldi	r22, 0x01	; 1
     27a:	80 e0       	ldi	r24, 0x00	; 0
     27c:	0e 94 54 05 	call	0xaa8	; 0xaa8 <DIO_WritePin>
		DIO_WritePin(LCD_PORT, LCD_RW, PIN_LOW);
     280:	40 e0       	ldi	r20, 0x00	; 0
     282:	62 e0       	ldi	r22, 0x02	; 2
     284:	80 e0       	ldi	r24, 0x00	; 0
     286:	0e 94 54 05 	call	0xaa8	; 0xaa8 <DIO_WritePin>
		/*copying upper nibble of the command to the pins*/
		DIO_WritePin(LCD_PORT, LCD_D7, READ_BIT(Character, 7));
     28a:	4c 2f       	mov	r20, r28
     28c:	44 1f       	adc	r20, r20
     28e:	44 27       	eor	r20, r20
     290:	44 1f       	adc	r20, r20
     292:	67 e0       	ldi	r22, 0x07	; 7
     294:	80 e0       	ldi	r24, 0x00	; 0
     296:	0e 94 54 05 	call	0xaa8	; 0xaa8 <DIO_WritePin>
		DIO_WritePin(LCD_PORT, LCD_D6, READ_BIT(Character, 6));
     29a:	4c 2f       	mov	r20, r28
     29c:	40 74       	andi	r20, 0x40	; 64
     29e:	50 e0       	ldi	r21, 0x00	; 0
     2a0:	04 2e       	mov	r0, r20
     2a2:	45 2f       	mov	r20, r21
     2a4:	00 0c       	add	r0, r0
     2a6:	44 1f       	adc	r20, r20
     2a8:	55 0b       	sbc	r21, r21
     2aa:	00 0c       	add	r0, r0
     2ac:	44 1f       	adc	r20, r20
     2ae:	55 1f       	adc	r21, r21
     2b0:	66 e0       	ldi	r22, 0x06	; 6
     2b2:	80 e0       	ldi	r24, 0x00	; 0
     2b4:	0e 94 54 05 	call	0xaa8	; 0xaa8 <DIO_WritePin>
		DIO_WritePin(LCD_PORT, LCD_D5, READ_BIT(Character, 5));
     2b8:	4c 2f       	mov	r20, r28
     2ba:	40 72       	andi	r20, 0x20	; 32
     2bc:	50 e0       	ldi	r21, 0x00	; 0
     2be:	55 95       	asr	r21
     2c0:	47 95       	ror	r20
     2c2:	55 95       	asr	r21
     2c4:	47 95       	ror	r20
     2c6:	55 95       	asr	r21
     2c8:	47 95       	ror	r20
     2ca:	55 95       	asr	r21
     2cc:	47 95       	ror	r20
     2ce:	55 95       	asr	r21
     2d0:	47 95       	ror	r20
     2d2:	65 e0       	ldi	r22, 0x05	; 5
     2d4:	80 e0       	ldi	r24, 0x00	; 0
     2d6:	0e 94 54 05 	call	0xaa8	; 0xaa8 <DIO_WritePin>
		DIO_WritePin(LCD_PORT, LCD_D4, READ_BIT(Character, 4));
     2da:	4c 2f       	mov	r20, r28
     2dc:	40 71       	andi	r20, 0x10	; 16
     2de:	50 e0       	ldi	r21, 0x00	; 0
     2e0:	55 95       	asr	r21
     2e2:	47 95       	ror	r20
     2e4:	55 95       	asr	r21
     2e6:	47 95       	ror	r20
     2e8:	55 95       	asr	r21
     2ea:	47 95       	ror	r20
     2ec:	55 95       	asr	r21
     2ee:	47 95       	ror	r20
     2f0:	64 e0       	ldi	r22, 0x04	; 4
     2f2:	80 e0       	ldi	r24, 0x00	; 0
     2f4:	0e 94 54 05 	call	0xaa8	; 0xaa8 <DIO_WritePin>

		/*writing data to the register by pulling the enable pin high for 1 Us*/
		DIO_WritePin(LCD_PORT, LCD_EN, PIN_HIGH);
     2f8:	41 e0       	ldi	r20, 0x01	; 1
     2fa:	63 e0       	ldi	r22, 0x03	; 3
     2fc:	80 e0       	ldi	r24, 0x00	; 0
     2fe:	0e 94 54 05 	call	0xaa8	; 0xaa8 <DIO_WritePin>
		/*set status of the function*/
		State = Sending_First_Nibble;
     302:	81 e0       	ldi	r24, 0x01	; 1
     304:	80 93 61 00 	sts	0x0061, r24	; 0x800061 <State.1713>
return ErrRetVal;
}
uint8_t LCD_SendData(uint8_t Character)
{
	/*function starting*/
	uint8_t ErrRetVal = OperationStarted;
     308:	8f ef       	ldi	r24, 0xFF	; 255

		/*writing data to the register by pulling the enable pin high for 1 Us*/
		DIO_WritePin(LCD_PORT, LCD_EN, PIN_HIGH);
		/*set status of the function*/
		State = Sending_First_Nibble;
		break;
     30a:	73 c0       	rjmp	.+230    	; 0x3f2 <LCD_SendData+0x1a6>
	case Sending_First_Nibble:
		/*start timer delay in background*/
		TimerRetVal = TIM_DelayUs(TIMER_2, 3);//1
     30c:	43 e0       	ldi	r20, 0x03	; 3
     30e:	50 e0       	ldi	r21, 0x00	; 0
     310:	60 e0       	ldi	r22, 0x00	; 0
     312:	70 e0       	ldi	r23, 0x00	; 0
     314:	82 e0       	ldi	r24, 0x02	; 2
     316:	0e 94 a5 07 	call	0xf4a	; 0xf4a <TIM_DelayUs>
		if (TimerRetVal == TIMER_E_SUCCESS) {
     31a:	81 11       	cpse	r24, r1
     31c:	65 c0       	rjmp	.+202    	; 0x3e8 <LCD_SendData+0x19c>
			DIO_WritePin(LCD_PORT, LCD_EN, PIN_LOW);
     31e:	40 e0       	ldi	r20, 0x00	; 0
     320:	63 e0       	ldi	r22, 0x03	; 3
     322:	0e 94 54 05 	call	0xaa8	; 0xaa8 <DIO_WritePin>
			/*update the function's state*/
			State = First_Nibble_Sent;
     326:	82 e0       	ldi	r24, 0x02	; 2
     328:	80 93 61 00 	sts	0x0061, r24	; 0x800061 <State.1713>
return ErrRetVal;
}
uint8_t LCD_SendData(uint8_t Character)
{
	/*function starting*/
	uint8_t ErrRetVal = OperationStarted;
     32c:	8f ef       	ldi	r24, 0xFF	; 255
     32e:	61 c0       	rjmp	.+194    	; 0x3f2 <LCD_SendData+0x1a6>
			State = First_Nibble_Sent;
		}
		break;
	case First_Nibble_Sent:
		/*sending control signals with configurations of selection of control reg. and write process*/
		DIO_WritePin(LCD_PORT, LCD_RS, PIN_HIGH);
     330:	41 e0       	ldi	r20, 0x01	; 1
     332:	61 e0       	ldi	r22, 0x01	; 1
     334:	80 e0       	ldi	r24, 0x00	; 0
     336:	0e 94 54 05 	call	0xaa8	; 0xaa8 <DIO_WritePin>
		DIO_WritePin(LCD_PORT, LCD_RW, PIN_LOW);
     33a:	40 e0       	ldi	r20, 0x00	; 0
     33c:	62 e0       	ldi	r22, 0x02	; 2
     33e:	80 e0       	ldi	r24, 0x00	; 0
     340:	0e 94 54 05 	call	0xaa8	; 0xaa8 <DIO_WritePin>
		/*copying lower nibble of the command to the pins*/
		DIO_WritePin(LCD_PORT, LCD_D7, READ_BIT(Character, 3));
     344:	4c 2f       	mov	r20, r28
     346:	48 70       	andi	r20, 0x08	; 8
     348:	50 e0       	ldi	r21, 0x00	; 0
     34a:	55 95       	asr	r21
     34c:	47 95       	ror	r20
     34e:	55 95       	asr	r21
     350:	47 95       	ror	r20
     352:	55 95       	asr	r21
     354:	47 95       	ror	r20
     356:	67 e0       	ldi	r22, 0x07	; 7
     358:	80 e0       	ldi	r24, 0x00	; 0
     35a:	0e 94 54 05 	call	0xaa8	; 0xaa8 <DIO_WritePin>
		DIO_WritePin(LCD_PORT, LCD_D6, READ_BIT(Character, 2));
     35e:	4c 2f       	mov	r20, r28
     360:	44 70       	andi	r20, 0x04	; 4
     362:	50 e0       	ldi	r21, 0x00	; 0
     364:	55 95       	asr	r21
     366:	47 95       	ror	r20
     368:	55 95       	asr	r21
     36a:	47 95       	ror	r20
     36c:	66 e0       	ldi	r22, 0x06	; 6
     36e:	80 e0       	ldi	r24, 0x00	; 0
     370:	0e 94 54 05 	call	0xaa8	; 0xaa8 <DIO_WritePin>
		DIO_WritePin(LCD_PORT, LCD_D5, READ_BIT(Character, 1));
     374:	4c 2f       	mov	r20, r28
     376:	42 70       	andi	r20, 0x02	; 2
     378:	50 e0       	ldi	r21, 0x00	; 0
     37a:	55 95       	asr	r21
     37c:	47 95       	ror	r20
     37e:	65 e0       	ldi	r22, 0x05	; 5
     380:	80 e0       	ldi	r24, 0x00	; 0
     382:	0e 94 54 05 	call	0xaa8	; 0xaa8 <DIO_WritePin>
		DIO_WritePin(LCD_PORT, LCD_D4, READ_BIT(Character, 0));
     386:	4c 2f       	mov	r20, r28
     388:	41 70       	andi	r20, 0x01	; 1
     38a:	64 e0       	ldi	r22, 0x04	; 4
     38c:	80 e0       	ldi	r24, 0x00	; 0
     38e:	0e 94 54 05 	call	0xaa8	; 0xaa8 <DIO_WritePin>

		/*writing data to the register by pulling the enable pin high for 1 Us*/
		DIO_WritePin(LCD_PORT, LCD_EN, PIN_HIGH);
     392:	41 e0       	ldi	r20, 0x01	; 1
     394:	63 e0       	ldi	r22, 0x03	; 3
     396:	80 e0       	ldi	r24, 0x00	; 0
     398:	0e 94 54 05 	call	0xaa8	; 0xaa8 <DIO_WritePin>
		/*set status of the function*/
		State = Sending_Second_Nibble;
     39c:	83 e0       	ldi	r24, 0x03	; 3
     39e:	80 93 61 00 	sts	0x0061, r24	; 0x800061 <State.1713>
return ErrRetVal;
}
uint8_t LCD_SendData(uint8_t Character)
{
	/*function starting*/
	uint8_t ErrRetVal = OperationStarted;
     3a2:	8f ef       	ldi	r24, 0xFF	; 255

		/*writing data to the register by pulling the enable pin high for 1 Us*/
		DIO_WritePin(LCD_PORT, LCD_EN, PIN_HIGH);
		/*set status of the function*/
		State = Sending_Second_Nibble;
		break;
     3a4:	26 c0       	rjmp	.+76     	; 0x3f2 <LCD_SendData+0x1a6>
	case Sending_Second_Nibble:
		/*start timer delay in background*/
		TimerRetVal = TIM_DelayUs(TIMER_2, 3);//1
     3a6:	43 e0       	ldi	r20, 0x03	; 3
     3a8:	50 e0       	ldi	r21, 0x00	; 0
     3aa:	60 e0       	ldi	r22, 0x00	; 0
     3ac:	70 e0       	ldi	r23, 0x00	; 0
     3ae:	82 e0       	ldi	r24, 0x02	; 2
     3b0:	0e 94 a5 07 	call	0xf4a	; 0xf4a <TIM_DelayUs>
		if (TimerRetVal == ((uint8_t) TIMER_E_SUCCESS )) {
     3b4:	81 11       	cpse	r24, r1
     3b6:	1a c0       	rjmp	.+52     	; 0x3ec <LCD_SendData+0x1a0>
			/*if timer delay function finished correctly pull enable pin low*/
			DIO_WritePin(LCD_PORT, LCD_EN, PIN_LOW);
     3b8:	40 e0       	ldi	r20, 0x00	; 0
     3ba:	63 e0       	ldi	r22, 0x03	; 3
     3bc:	0e 94 54 05 	call	0xaa8	; 0xaa8 <DIO_WritePin>
			/*set the function's state*/
			State = Second_Nibble_Sent;
     3c0:	84 e0       	ldi	r24, 0x04	; 4
     3c2:	80 93 61 00 	sts	0x0061, r24	; 0x800061 <State.1713>
return ErrRetVal;
}
uint8_t LCD_SendData(uint8_t Character)
{
	/*function starting*/
	uint8_t ErrRetVal = OperationStarted;
     3c6:	8f ef       	ldi	r24, 0xFF	; 255
     3c8:	14 c0       	rjmp	.+40     	; 0x3f2 <LCD_SendData+0x1a6>
			State = Second_Nibble_Sent;
		}
		break;
	case Second_Nibble_Sent:
		/*start timer delay in background*/
		TimerRetVal = TIM_DelayMs(TIMER_2, 0);
     3ca:	40 e0       	ldi	r20, 0x00	; 0
     3cc:	50 e0       	ldi	r21, 0x00	; 0
     3ce:	ba 01       	movw	r22, r20
     3d0:	82 e0       	ldi	r24, 0x02	; 2
     3d2:	0e 94 55 08 	call	0x10aa	; 0x10aa <TIM_DelayMs>
		if (TimerRetVal == ((uint8_t) TIMER_E_SUCCESS )) {
     3d6:	81 11       	cpse	r24, r1
     3d8:	0b c0       	rjmp	.+22     	; 0x3f0 <LCD_SendData+0x1a4>
			/*reset the function's state*/
			State = OperationStarted;
     3da:	8f ef       	ldi	r24, 0xFF	; 255
     3dc:	80 93 61 00 	sts	0x0061, r24	; 0x800061 <State.1713>
			/*process finished successfully*/
			ErrRetVal = OperationSuccess;
     3e0:	80 e0       	ldi	r24, 0x00	; 0
     3e2:	07 c0       	rjmp	.+14     	; 0x3f2 <LCD_SendData+0x1a6>
		}
		break;
	default:
		ErrRetVal = OperationFail;
     3e4:	81 e0       	ldi	r24, 0x01	; 1
     3e6:	05 c0       	rjmp	.+10     	; 0x3f2 <LCD_SendData+0x1a6>
return ErrRetVal;
}
uint8_t LCD_SendData(uint8_t Character)
{
	/*function starting*/
	uint8_t ErrRetVal = OperationStarted;
     3e8:	8f ef       	ldi	r24, 0xFF	; 255
     3ea:	03 c0       	rjmp	.+6      	; 0x3f2 <LCD_SendData+0x1a6>
     3ec:	8f ef       	ldi	r24, 0xFF	; 255
     3ee:	01 c0       	rjmp	.+2      	; 0x3f2 <LCD_SendData+0x1a6>
     3f0:	8f ef       	ldi	r24, 0xFF	; 255
		ErrRetVal = OperationFail;
	}
	/*return from function*/
	return ErrRetVal;

}
     3f2:	cf 91       	pop	r28
     3f4:	08 95       	ret

000003f6 <LCD_Init>:
	/*setting the functions state*/
	uint8_t static State = OperationStarted;
	/*declaring a variable for the timer return*/
	uint8_t TimerRetVal = 1;
	uint8_t LCD_SendCommandRetVal = OperationStarted;
	switch (State) {
     3f6:	80 91 60 00 	lds	r24, 0x0060	; 0x800060 <__DATA_REGION_ORIGIN__>
     3fa:	8a 30       	cpi	r24, 0x0A	; 10
     3fc:	09 f4       	brne	.+2      	; 0x400 <__EEPROM_REGION_LENGTH__>
     3fe:	9d c0       	rjmp	.+314    	; 0x53a <__EEPROM_REGION_LENGTH__+0x13a>
     400:	90 f4       	brcc	.+36     	; 0x426 <__EEPROM_REGION_LENGTH__+0x26>
     402:	87 30       	cpi	r24, 0x07	; 7
     404:	09 f4       	brne	.+2      	; 0x408 <__EEPROM_REGION_LENGTH__+0x8>
     406:	cb c0       	rjmp	.+406    	; 0x59e <__EEPROM_REGION_LENGTH__+0x19e>
     408:	38 f4       	brcc	.+14     	; 0x418 <__EEPROM_REGION_LENGTH__+0x18>
     40a:	85 30       	cpi	r24, 0x05	; 5
     40c:	09 f4       	brne	.+2      	; 0x410 <__EEPROM_REGION_LENGTH__+0x10>
     40e:	69 c0       	rjmp	.+210    	; 0x4e2 <__EEPROM_REGION_LENGTH__+0xe2>
     410:	86 30       	cpi	r24, 0x06	; 6
     412:	09 f4       	brne	.+2      	; 0x416 <__EEPROM_REGION_LENGTH__+0x16>
     414:	74 c0       	rjmp	.+232    	; 0x4fe <__EEPROM_REGION_LENGTH__+0xfe>
     416:	db c0       	rjmp	.+438    	; 0x5ce <__EEPROM_REGION_LENGTH__+0x1ce>
     418:	88 30       	cpi	r24, 0x08	; 8
     41a:	09 f4       	brne	.+2      	; 0x41e <__EEPROM_REGION_LENGTH__+0x1e>
     41c:	7a c0       	rjmp	.+244    	; 0x512 <__EEPROM_REGION_LENGTH__+0x112>
     41e:	89 30       	cpi	r24, 0x09	; 9
     420:	09 f4       	brne	.+2      	; 0x424 <__EEPROM_REGION_LENGTH__+0x24>
     422:	81 c0       	rjmp	.+258    	; 0x526 <__EEPROM_REGION_LENGTH__+0x126>
     424:	d4 c0       	rjmp	.+424    	; 0x5ce <__EEPROM_REGION_LENGTH__+0x1ce>
     426:	8d 30       	cpi	r24, 0x0D	; 13
     428:	09 f4       	brne	.+2      	; 0x42c <__EEPROM_REGION_LENGTH__+0x2c>
     42a:	a5 c0       	rjmp	.+330    	; 0x576 <__EEPROM_REGION_LENGTH__+0x176>
     42c:	38 f4       	brcc	.+14     	; 0x43c <__EEPROM_REGION_LENGTH__+0x3c>
     42e:	8b 30       	cpi	r24, 0x0B	; 11
     430:	09 f4       	brne	.+2      	; 0x434 <__EEPROM_REGION_LENGTH__+0x34>
     432:	8d c0       	rjmp	.+282    	; 0x54e <__EEPROM_REGION_LENGTH__+0x14e>
     434:	8c 30       	cpi	r24, 0x0C	; 12
     436:	09 f4       	brne	.+2      	; 0x43a <__EEPROM_REGION_LENGTH__+0x3a>
     438:	94 c0       	rjmp	.+296    	; 0x562 <__EEPROM_REGION_LENGTH__+0x162>
     43a:	c9 c0       	rjmp	.+402    	; 0x5ce <__EEPROM_REGION_LENGTH__+0x1ce>
     43c:	8f 30       	cpi	r24, 0x0F	; 15
     43e:	09 f4       	brne	.+2      	; 0x442 <__EEPROM_REGION_LENGTH__+0x42>
     440:	bc c0       	rjmp	.+376    	; 0x5ba <__EEPROM_REGION_LENGTH__+0x1ba>
     442:	08 f4       	brcc	.+2      	; 0x446 <__EEPROM_REGION_LENGTH__+0x46>
     444:	a2 c0       	rjmp	.+324    	; 0x58a <__EEPROM_REGION_LENGTH__+0x18a>
     446:	8f 3f       	cpi	r24, 0xFF	; 255
     448:	09 f0       	breq	.+2      	; 0x44c <__EEPROM_REGION_LENGTH__+0x4c>
     44a:	c1 c0       	rjmp	.+386    	; 0x5ce <__EEPROM_REGION_LENGTH__+0x1ce>
	case OperationStarted:
		/*Dio Initialize for the*/
		DIO_SetPinDirection(LCD_PORT, LCD_D7, PIN_OUTPUT);
     44c:	41 e0       	ldi	r20, 0x01	; 1
     44e:	67 e0       	ldi	r22, 0x07	; 7
     450:	80 e0       	ldi	r24, 0x00	; 0
     452:	0e 94 fb 04 	call	0x9f6	; 0x9f6 <DIO_SetPinDirection>
		DIO_SetPinDirection(LCD_PORT, LCD_D6, PIN_OUTPUT);
     456:	41 e0       	ldi	r20, 0x01	; 1
     458:	66 e0       	ldi	r22, 0x06	; 6
     45a:	80 e0       	ldi	r24, 0x00	; 0
     45c:	0e 94 fb 04 	call	0x9f6	; 0x9f6 <DIO_SetPinDirection>
		DIO_SetPinDirection(LCD_PORT, LCD_D5, PIN_OUTPUT);
     460:	41 e0       	ldi	r20, 0x01	; 1
     462:	65 e0       	ldi	r22, 0x05	; 5
     464:	80 e0       	ldi	r24, 0x00	; 0
     466:	0e 94 fb 04 	call	0x9f6	; 0x9f6 <DIO_SetPinDirection>
		DIO_SetPinDirection(LCD_PORT, LCD_D4, PIN_OUTPUT);
     46a:	41 e0       	ldi	r20, 0x01	; 1
     46c:	64 e0       	ldi	r22, 0x04	; 4
     46e:	80 e0       	ldi	r24, 0x00	; 0
     470:	0e 94 fb 04 	call	0x9f6	; 0x9f6 <DIO_SetPinDirection>
		DIO_SetPinDirection(LCD_PORT, LCD_RS, PIN_OUTPUT);
     474:	41 e0       	ldi	r20, 0x01	; 1
     476:	61 e0       	ldi	r22, 0x01	; 1
     478:	80 e0       	ldi	r24, 0x00	; 0
     47a:	0e 94 fb 04 	call	0x9f6	; 0x9f6 <DIO_SetPinDirection>
		DIO_SetPinDirection(LCD_PORT, LCD_RW, PIN_OUTPUT);
     47e:	41 e0       	ldi	r20, 0x01	; 1
     480:	62 e0       	ldi	r22, 0x02	; 2
     482:	80 e0       	ldi	r24, 0x00	; 0
     484:	0e 94 fb 04 	call	0x9f6	; 0x9f6 <DIO_SetPinDirection>
		DIO_SetPinDirection(LCD_PORT, LCD_EN, PIN_OUTPUT);
     488:	41 e0       	ldi	r20, 0x01	; 1
     48a:	63 e0       	ldi	r22, 0x03	; 3
     48c:	80 e0       	ldi	r24, 0x00	; 0
     48e:	0e 94 fb 04 	call	0x9f6	; 0x9f6 <DIO_SetPinDirection>
		/*setting initial value for LCD Pins*/
		DIO_WritePin(LCD_PORT, LCD_D7, PIN_LOW);
     492:	40 e0       	ldi	r20, 0x00	; 0
     494:	67 e0       	ldi	r22, 0x07	; 7
     496:	80 e0       	ldi	r24, 0x00	; 0
     498:	0e 94 54 05 	call	0xaa8	; 0xaa8 <DIO_WritePin>
		DIO_WritePin(LCD_PORT, LCD_D6, PIN_LOW);
     49c:	40 e0       	ldi	r20, 0x00	; 0
     49e:	66 e0       	ldi	r22, 0x06	; 6
     4a0:	80 e0       	ldi	r24, 0x00	; 0
     4a2:	0e 94 54 05 	call	0xaa8	; 0xaa8 <DIO_WritePin>
		DIO_WritePin(LCD_PORT, LCD_D5, PIN_LOW);
     4a6:	40 e0       	ldi	r20, 0x00	; 0
     4a8:	65 e0       	ldi	r22, 0x05	; 5
     4aa:	80 e0       	ldi	r24, 0x00	; 0
     4ac:	0e 94 54 05 	call	0xaa8	; 0xaa8 <DIO_WritePin>
		DIO_WritePin(LCD_PORT, LCD_D4, PIN_LOW);
     4b0:	40 e0       	ldi	r20, 0x00	; 0
     4b2:	64 e0       	ldi	r22, 0x04	; 4
     4b4:	80 e0       	ldi	r24, 0x00	; 0
     4b6:	0e 94 54 05 	call	0xaa8	; 0xaa8 <DIO_WritePin>
		DIO_WritePin(LCD_PORT, LCD_RS, PIN_LOW);
     4ba:	40 e0       	ldi	r20, 0x00	; 0
     4bc:	61 e0       	ldi	r22, 0x01	; 1
     4be:	80 e0       	ldi	r24, 0x00	; 0
     4c0:	0e 94 54 05 	call	0xaa8	; 0xaa8 <DIO_WritePin>
		DIO_WritePin(LCD_PORT, LCD_RW, PIN_LOW);
     4c4:	40 e0       	ldi	r20, 0x00	; 0
     4c6:	62 e0       	ldi	r22, 0x02	; 2
     4c8:	80 e0       	ldi	r24, 0x00	; 0
     4ca:	0e 94 54 05 	call	0xaa8	; 0xaa8 <DIO_WritePin>
		DIO_WritePin(LCD_PORT, LCD_EN, PIN_LOW);
     4ce:	40 e0       	ldi	r20, 0x00	; 0
     4d0:	63 e0       	ldi	r22, 0x03	; 3
     4d2:	80 e0       	ldi	r24, 0x00	; 0
     4d4:	0e 94 54 05 	call	0xaa8	; 0xaa8 <DIO_WritePin>
		/*set status of the function*/
		State = LCD_Pin_Initializing;
     4d8:	85 e0       	ldi	r24, 0x05	; 5
     4da:	80 93 60 00 	sts	0x0060, r24	; 0x800060 <__DATA_REGION_ORIGIN__>

}
uint8_t LCD_Init()
{
	/*function starting*/
	uint8_t ErrRetVal = OperationStarted;
     4de:	8f ef       	ldi	r24, 0xFF	; 255
		DIO_WritePin(LCD_PORT, LCD_RS, PIN_LOW);
		DIO_WritePin(LCD_PORT, LCD_RW, PIN_LOW);
		DIO_WritePin(LCD_PORT, LCD_EN, PIN_LOW);
		/*set status of the function*/
		State = LCD_Pin_Initializing;
		break;
     4e0:	08 95       	ret
	case LCD_Pin_Initializing:
		/*start timer delay in background*/
		TimerRetVal = TIM_DelayMs(TIMER_2, 45);
     4e2:	4d e2       	ldi	r20, 0x2D	; 45
     4e4:	50 e0       	ldi	r21, 0x00	; 0
     4e6:	60 e0       	ldi	r22, 0x00	; 0
     4e8:	70 e0       	ldi	r23, 0x00	; 0
     4ea:	82 e0       	ldi	r24, 0x02	; 2
     4ec:	0e 94 55 08 	call	0x10aa	; 0x10aa <TIM_DelayMs>
		if (TimerRetVal == ((uint8_t) TIMER_E_SUCCESS )) {
     4f0:	81 11       	cpse	r24, r1
     4f2:	6f c0       	rjmp	.+222    	; 0x5d2 <__EEPROM_REGION_LENGTH__+0x1d2>
			/*if timer delay function finished correctly Start the initialization sequence*/
			State = LCD_Start_Sending_Initialization_Sequence;
     4f4:	86 e0       	ldi	r24, 0x06	; 6
     4f6:	80 93 60 00 	sts	0x0060, r24	; 0x800060 <__DATA_REGION_ORIGIN__>

}
uint8_t LCD_Init()
{
	/*function starting*/
	uint8_t ErrRetVal = OperationStarted;
     4fa:	8f ef       	ldi	r24, 0xFF	; 255
     4fc:	08 95       	ret
			/*if timer delay function finished correctly Start the initialization sequence*/
			State = LCD_Start_Sending_Initialization_Sequence;
		}
		break;
	case LCD_Start_Sending_Initialization_Sequence:
		LCD_SendCommandRetVal = LCD_SendCommand(LCD_Init_CMD_1);
     4fe:	83 e0       	ldi	r24, 0x03	; 3
     500:	0e 94 50 00 	call	0xa0	; 0xa0 <LCD_SendCommand>
		if(LCD_SendCommandRetVal == OperationSuccess)
     504:	81 11       	cpse	r24, r1
     506:	67 c0       	rjmp	.+206    	; 0x5d6 <__EEPROM_REGION_LENGTH__+0x1d6>
		{
			State = First_Cmd_In_Initialization_Sequence_Is_Sent;
     508:	88 e0       	ldi	r24, 0x08	; 8
     50a:	80 93 60 00 	sts	0x0060, r24	; 0x800060 <__DATA_REGION_ORIGIN__>

}
uint8_t LCD_Init()
{
	/*function starting*/
	uint8_t ErrRetVal = OperationStarted;
     50e:	8f ef       	ldi	r24, 0xFF	; 255
     510:	08 95       	ret
		{
			State = First_Cmd_In_Initialization_Sequence_Is_Sent;
		}
		break;
	case First_Cmd_In_Initialization_Sequence_Is_Sent:
		LCD_SendCommandRetVal = LCD_SendCommand(LCD_Init_CMD_1);
     512:	83 e0       	ldi	r24, 0x03	; 3
     514:	0e 94 50 00 	call	0xa0	; 0xa0 <LCD_SendCommand>
		if(LCD_SendCommandRetVal == OperationSuccess)
     518:	81 11       	cpse	r24, r1
     51a:	5f c0       	rjmp	.+190    	; 0x5da <__EEPROM_REGION_LENGTH__+0x1da>
		{
			State = Second_Cmd_In_Initialization_Sequence_Is_Sent;
     51c:	89 e0       	ldi	r24, 0x09	; 9
     51e:	80 93 60 00 	sts	0x0060, r24	; 0x800060 <__DATA_REGION_ORIGIN__>

}
uint8_t LCD_Init()
{
	/*function starting*/
	uint8_t ErrRetVal = OperationStarted;
     522:	8f ef       	ldi	r24, 0xFF	; 255
     524:	08 95       	ret
		{
			State = Second_Cmd_In_Initialization_Sequence_Is_Sent;
		}
		break;
	case Second_Cmd_In_Initialization_Sequence_Is_Sent:
		LCD_SendCommandRetVal = LCD_SendCommand(LCD_Init_CMD_1);
     526:	83 e0       	ldi	r24, 0x03	; 3
     528:	0e 94 50 00 	call	0xa0	; 0xa0 <LCD_SendCommand>
		if(LCD_SendCommandRetVal == OperationSuccess)
     52c:	81 11       	cpse	r24, r1
     52e:	57 c0       	rjmp	.+174    	; 0x5de <__EEPROM_REGION_LENGTH__+0x1de>
		{
			State = Third_Cmd_In_Initialization_Sequence_Is_Sent;
     530:	8a e0       	ldi	r24, 0x0A	; 10
     532:	80 93 60 00 	sts	0x0060, r24	; 0x800060 <__DATA_REGION_ORIGIN__>

}
uint8_t LCD_Init()
{
	/*function starting*/
	uint8_t ErrRetVal = OperationStarted;
     536:	8f ef       	ldi	r24, 0xFF	; 255
     538:	08 95       	ret
		{
			State = Third_Cmd_In_Initialization_Sequence_Is_Sent;
		}
		break;
	case Third_Cmd_In_Initialization_Sequence_Is_Sent:
		LCD_SendCommandRetVal = LCD_SendCommand(LCD_HOME);
     53a:	82 e0       	ldi	r24, 0x02	; 2
     53c:	0e 94 50 00 	call	0xa0	; 0xa0 <LCD_SendCommand>
		if(LCD_SendCommandRetVal == OperationSuccess)
     540:	81 11       	cpse	r24, r1
     542:	4f c0       	rjmp	.+158    	; 0x5e2 <__EEPROM_REGION_LENGTH__+0x1e2>
		{
			State = Fourth_Cmd_In_Initialization_Sequence_Is_Sent;
     544:	8b e0       	ldi	r24, 0x0B	; 11
     546:	80 93 60 00 	sts	0x0060, r24	; 0x800060 <__DATA_REGION_ORIGIN__>

}
uint8_t LCD_Init()
{
	/*function starting*/
	uint8_t ErrRetVal = OperationStarted;
     54a:	8f ef       	ldi	r24, 0xFF	; 255
     54c:	08 95       	ret
		{
			State = Fourth_Cmd_In_Initialization_Sequence_Is_Sent;
		}
		break;
	case Fourth_Cmd_In_Initialization_Sequence_Is_Sent:
		LCD_SendCommandRetVal = LCD_SendCommand(LCD_FUNCSET_6);//LCD_FUNCSET_6//LCD_FUNCSET_2
     54e:	88 e2       	ldi	r24, 0x28	; 40
     550:	0e 94 50 00 	call	0xa0	; 0xa0 <LCD_SendCommand>
		if(LCD_SendCommandRetVal == OperationSuccess)
     554:	81 11       	cpse	r24, r1
     556:	47 c0       	rjmp	.+142    	; 0x5e6 <__EEPROM_REGION_LENGTH__+0x1e6>
		{
			State = Fifth_Cmd_In_Initialization_Sequence_Is_Sent;
     558:	8c e0       	ldi	r24, 0x0C	; 12
     55a:	80 93 60 00 	sts	0x0060, r24	; 0x800060 <__DATA_REGION_ORIGIN__>

}
uint8_t LCD_Init()
{
	/*function starting*/
	uint8_t ErrRetVal = OperationStarted;
     55e:	8f ef       	ldi	r24, 0xFF	; 255
     560:	08 95       	ret
		{
			State = Fifth_Cmd_In_Initialization_Sequence_Is_Sent;
		}
		break;
	case Fifth_Cmd_In_Initialization_Sequence_Is_Sent:
		LCD_SendCommandRetVal = LCD_SendCommand(LCD_DISPON_CURSOFF);//LCD_DISPON_CURSOFF
     562:	8c e0       	ldi	r24, 0x0C	; 12
     564:	0e 94 50 00 	call	0xa0	; 0xa0 <LCD_SendCommand>
		if(LCD_SendCommandRetVal == OperationSuccess)
     568:	81 11       	cpse	r24, r1
     56a:	3f c0       	rjmp	.+126    	; 0x5ea <__EEPROM_REGION_LENGTH__+0x1ea>
		{
			State = Sixth_Cmd_In_Initialization_Sequence_Is_Sent;
     56c:	8d e0       	ldi	r24, 0x0D	; 13
     56e:	80 93 60 00 	sts	0x0060, r24	; 0x800060 <__DATA_REGION_ORIGIN__>

}
uint8_t LCD_Init()
{
	/*function starting*/
	uint8_t ErrRetVal = OperationStarted;
     572:	8f ef       	ldi	r24, 0xFF	; 255
     574:	08 95       	ret
		{
			State = Sixth_Cmd_In_Initialization_Sequence_Is_Sent;
		}
		break;
	case Sixth_Cmd_In_Initialization_Sequence_Is_Sent:
		LCD_SendCommandRetVal = LCD_SendCommand(LCD_INCREMENTENTRYMODE);
     576:	86 e0       	ldi	r24, 0x06	; 6
     578:	0e 94 50 00 	call	0xa0	; 0xa0 <LCD_SendCommand>
		if(LCD_SendCommandRetVal == OperationSuccess)
     57c:	81 11       	cpse	r24, r1
     57e:	37 c0       	rjmp	.+110    	; 0x5ee <__EEPROM_REGION_LENGTH__+0x1ee>
		{
			State = Seventh_Cmd_In_Initialization_Sequence_Is_Sent;
     580:	8e e0       	ldi	r24, 0x0E	; 14
     582:	80 93 60 00 	sts	0x0060, r24	; 0x800060 <__DATA_REGION_ORIGIN__>

}
uint8_t LCD_Init()
{
	/*function starting*/
	uint8_t ErrRetVal = OperationStarted;
     586:	8f ef       	ldi	r24, 0xFF	; 255
     588:	08 95       	ret
		{
			State = Seventh_Cmd_In_Initialization_Sequence_Is_Sent;
		}
		break;
	case Seventh_Cmd_In_Initialization_Sequence_Is_Sent:
		LCD_SendCommandRetVal = LCD_SendCommand(LCD_CLR);//LCD_CLR
     58a:	81 e0       	ldi	r24, 0x01	; 1
     58c:	0e 94 50 00 	call	0xa0	; 0xa0 <LCD_SendCommand>
		if(LCD_SendCommandRetVal == OperationSuccess)
     590:	81 11       	cpse	r24, r1
     592:	2f c0       	rjmp	.+94     	; 0x5f2 <__EEPROM_REGION_LENGTH__+0x1f2>
		{
			State = LCD_Sent_Initialization_Sequence;
     594:	87 e0       	ldi	r24, 0x07	; 7
     596:	80 93 60 00 	sts	0x0060, r24	; 0x800060 <__DATA_REGION_ORIGIN__>

}
uint8_t LCD_Init()
{
	/*function starting*/
	uint8_t ErrRetVal = OperationStarted;
     59a:	8f ef       	ldi	r24, 0xFF	; 255
     59c:	08 95       	ret
			State = LCD_Sent_Initialization_Sequence;
		}
		break;
	case LCD_Sent_Initialization_Sequence:
		/*start timer delay in background*/
		TimerRetVal = TIM_DelayMs(TIMER_2, 3);
     59e:	43 e0       	ldi	r20, 0x03	; 3
     5a0:	50 e0       	ldi	r21, 0x00	; 0
     5a2:	60 e0       	ldi	r22, 0x00	; 0
     5a4:	70 e0       	ldi	r23, 0x00	; 0
     5a6:	82 e0       	ldi	r24, 0x02	; 2
     5a8:	0e 94 55 08 	call	0x10aa	; 0x10aa <TIM_DelayMs>
		if (TimerRetVal == ((uint8_t) TIMER_E_SUCCESS )) {
     5ac:	81 11       	cpse	r24, r1
     5ae:	23 c0       	rjmp	.+70     	; 0x5f6 <__EEPROM_REGION_LENGTH__+0x1f6>
			/*if timer delay function finished correctly Start the initialization sequence*/
//			LCD_SendCommand(LCD_CURS_Position0);
			State = Final_Cmd_In_Initialization_Sequence_Is_Sent;
     5b0:	8f e0       	ldi	r24, 0x0F	; 15
     5b2:	80 93 60 00 	sts	0x0060, r24	; 0x800060 <__DATA_REGION_ORIGIN__>

}
uint8_t LCD_Init()
{
	/*function starting*/
	uint8_t ErrRetVal = OperationStarted;
     5b6:	8f ef       	ldi	r24, 0xFF	; 255
     5b8:	08 95       	ret
			State = Final_Cmd_In_Initialization_Sequence_Is_Sent;
//			ErrRetVal = OperationSuccess;
		}
		break;
	case Final_Cmd_In_Initialization_Sequence_Is_Sent:
		LCD_SendCommandRetVal = LCD_SendCommand(LCD_CURS_Position0);
     5ba:	80 e8       	ldi	r24, 0x80	; 128
     5bc:	0e 94 50 00 	call	0xa0	; 0xa0 <LCD_SendCommand>
		if(LCD_SendCommandRetVal == OperationSuccess)
     5c0:	81 11       	cpse	r24, r1
     5c2:	1b c0       	rjmp	.+54     	; 0x5fa <__EEPROM_REGION_LENGTH__+0x1fa>
		{
			State = OperationStarted;
     5c4:	8f ef       	ldi	r24, 0xFF	; 255
     5c6:	80 93 60 00 	sts	0x0060, r24	; 0x800060 <__DATA_REGION_ORIGIN__>
			ErrRetVal = OperationSuccess;
     5ca:	80 e0       	ldi	r24, 0x00	; 0
     5cc:	08 95       	ret
		}
		break;
	default:
		ErrRetVal = OperationFail;
     5ce:	81 e0       	ldi	r24, 0x01	; 1
     5d0:	08 95       	ret

}
uint8_t LCD_Init()
{
	/*function starting*/
	uint8_t ErrRetVal = OperationStarted;
     5d2:	8f ef       	ldi	r24, 0xFF	; 255
     5d4:	08 95       	ret
     5d6:	8f ef       	ldi	r24, 0xFF	; 255
     5d8:	08 95       	ret
     5da:	8f ef       	ldi	r24, 0xFF	; 255
     5dc:	08 95       	ret
     5de:	8f ef       	ldi	r24, 0xFF	; 255
     5e0:	08 95       	ret
     5e2:	8f ef       	ldi	r24, 0xFF	; 255
     5e4:	08 95       	ret
     5e6:	8f ef       	ldi	r24, 0xFF	; 255
     5e8:	08 95       	ret
     5ea:	8f ef       	ldi	r24, 0xFF	; 255
     5ec:	08 95       	ret
     5ee:	8f ef       	ldi	r24, 0xFF	; 255
     5f0:	08 95       	ret
     5f2:	8f ef       	ldi	r24, 0xFF	; 255
     5f4:	08 95       	ret
     5f6:	8f ef       	ldi	r24, 0xFF	; 255
     5f8:	08 95       	ret
     5fa:	8f ef       	ldi	r24, 0xFF	; 255
		break;
	default:
		ErrRetVal = OperationFail;
	}
	return ErrRetVal;
}
     5fc:	08 95       	ret

000005fe <LCD_SendString>:
uint8_t LCD_SendString(ptr_int8_t String)
{
     5fe:	cf 93       	push	r28
     600:	df 93       	push	r29
     602:	ec 01       	movw	r28, r24
	uint8_t ErrRetVal = OperationStarted;
	uint8_t LCD_SendDataRetVal = OperationStarted;
	if (String != NULL_PTR) {
     604:	89 2b       	or	r24, r25
     606:	39 f4       	brne	.+14     	; 0x616 <LCD_SendString+0x18>
			else
				continue;
		}
		ErrRetVal = OperationSuccess;
	} else {
		ErrRetVal = OperationFail;
     608:	81 e0       	ldi	r24, 0x01	; 1
     60a:	08 c0       	rjmp	.+16     	; 0x61c <LCD_SendString+0x1e>
	uint8_t ErrRetVal = OperationStarted;
	uint8_t LCD_SendDataRetVal = OperationStarted;
	if (String != NULL_PTR) {
		while (*String != NULL_TERMINATOR ) {
			ErrRetVal = OperationRunning;
			LCD_SendDataRetVal = LCD_SendData(*String);
     60c:	0e 94 26 01 	call	0x24c	; 0x24c <LCD_SendData>
			if(LCD_SendDataRetVal == OperationSuccess)
     610:	81 11       	cpse	r24, r1
     612:	01 c0       	rjmp	.+2      	; 0x616 <LCD_SendString+0x18>
				String++;
     614:	21 96       	adiw	r28, 0x01	; 1
uint8_t LCD_SendString(ptr_int8_t String)
{
	uint8_t ErrRetVal = OperationStarted;
	uint8_t LCD_SendDataRetVal = OperationStarted;
	if (String != NULL_PTR) {
		while (*String != NULL_TERMINATOR ) {
     616:	88 81       	ld	r24, Y
     618:	81 11       	cpse	r24, r1
     61a:	f8 cf       	rjmp	.-16     	; 0x60c <LCD_SendString+0xe>
		ErrRetVal = OperationSuccess;
	} else {
		ErrRetVal = OperationFail;
	}
	return ErrRetVal;
}
     61c:	df 91       	pop	r29
     61e:	cf 91       	pop	r28
     620:	08 95       	ret

00000622 <LCD_SendNumber>:
uint8_t LCD_SendNumber(uint32_t Number)
{
     622:	cf 93       	push	r28
     624:	df 93       	push	r29
     626:	cd b7       	in	r28, 0x3d	; 61
     628:	de b7       	in	r29, 0x3e	; 62
     62a:	cf 5f       	subi	r28, 0xFF	; 255
     62c:	d1 09       	sbc	r29, r1
     62e:	0f b6       	in	r0, 0x3f	; 63
     630:	f8 94       	cli
     632:	de bf       	out	0x3e, r29	; 62
     634:	0f be       	out	0x3f, r0	; 63
     636:	cd bf       	out	0x3d, r28	; 61
	uint8_t ErrRetVal = OperationStarted;
	uint8_t String[255];
	STR_Number2String((uint32_t)Number,String);
     638:	ae 01       	movw	r20, r28
     63a:	4f 5f       	subi	r20, 0xFF	; 255
     63c:	5f 4f       	sbci	r21, 0xFF	; 255
     63e:	0e 94 90 04 	call	0x920	; 0x920 <STR_Number2String>
//	LCD_NumberToString(Number,String);
	LCD_SendString((int8_t*)String);
     642:	ce 01       	movw	r24, r28
     644:	01 96       	adiw	r24, 0x01	; 1
     646:	0e 94 ff 02 	call	0x5fe	; 0x5fe <LCD_SendString>
	ErrRetVal = OperationSuccess;
	return ErrRetVal;
}
     64a:	80 e0       	ldi	r24, 0x00	; 0
     64c:	c1 50       	subi	r28, 0x01	; 1
     64e:	df 4f       	sbci	r29, 0xFF	; 255
     650:	0f b6       	in	r0, 0x3f	; 63
     652:	f8 94       	cli
     654:	de bf       	out	0x3e, r29	; 62
     656:	0f be       	out	0x3f, r0	; 63
     658:	cd bf       	out	0x3d, r28	; 61
     65a:	df 91       	pop	r29
     65c:	cf 91       	pop	r28
     65e:	08 95       	ret

00000660 <MOTOR_init>:
static uint8_t gu8_ERROR_STAT = MOTOR_SUCCESS;
static uint8_t gu8_InitFlag = NOT_INIT;
/*APIs IMPLEMENTATION------------------------*/
uint8_t MOTOR_init(void) {
		/*CHECK IF MOTORS HAS BEEN INITIALIZED*/
	if (INIT == gu8_InitFlag) {//IF MOTORS IS INITIALIZED
     660:	80 91 6c 00 	lds	r24, 0x006C	; 0x80006c <__data_end>
     664:	81 30       	cpi	r24, 0x01	; 1
     666:	21 f4       	brne	.+8      	; 0x670 <MOTOR_init+0x10>
		gu8_ERROR_STAT = MOTOR_SEC_INIT;//STORE SEC INIT IN ERRROR STAT
     668:	8f ef       	ldi	r24, 0xFF	; 255
     66a:	80 93 6d 00 	sts	0x006D, r24	; 0x80006d <gu8_ERROR_STAT>
     66e:	25 c0       	rjmp	.+74     	; 0x6ba <MOTOR_init+0x5a>
	} else if (NOT_INIT == gu8_InitFlag) {//IF MOTORS IS NOT INITIALIZED
     670:	81 11       	cpse	r24, r1
     672:	23 c0       	rjmp	.+70     	; 0x6ba <MOTOR_init+0x5a>
	/*SETTING MOTOR1 DIR PINS TO OUTPUT*/
	DIO_SetPinDirection(MOTOR1_PORT, MOTOR1_PIN0, PIN_OUTPUT);
     674:	41 e0       	ldi	r20, 0x01	; 1
     676:	60 e0       	ldi	r22, 0x00	; 0
     678:	82 e0       	ldi	r24, 0x02	; 2
     67a:	0e 94 fb 04 	call	0x9f6	; 0x9f6 <DIO_SetPinDirection>
	DIO_SetPinDirection(MOTOR1_PORT, MOTOR1_PIN1, PIN_OUTPUT);
     67e:	41 e0       	ldi	r20, 0x01	; 1
     680:	61 e0       	ldi	r22, 0x01	; 1
     682:	82 e0       	ldi	r24, 0x02	; 2
     684:	0e 94 fb 04 	call	0x9f6	; 0x9f6 <DIO_SetPinDirection>
	DIO_SetPinDirection(MOTOR1_PORT, MOTOR1_PIN2, PIN_OUTPUT);
     688:	41 e0       	ldi	r20, 0x01	; 1
     68a:	62 e0       	ldi	r22, 0x02	; 2
     68c:	82 e0       	ldi	r24, 0x02	; 2
     68e:	0e 94 fb 04 	call	0x9f6	; 0x9f6 <DIO_SetPinDirection>
	/*SETTING MOTOR2 DIR PINS TO OUTPUT*/
	DIO_SetPinDirection(MOTOR2_PORT, MOTOR2_PIN0, PIN_OUTPUT);
     692:	41 e0       	ldi	r20, 0x01	; 1
     694:	63 e0       	ldi	r22, 0x03	; 3
     696:	82 e0       	ldi	r24, 0x02	; 2
     698:	0e 94 fb 04 	call	0x9f6	; 0x9f6 <DIO_SetPinDirection>
	DIO_SetPinDirection(MOTOR2_PORT, MOTOR2_PIN1, PIN_OUTPUT);
     69c:	41 e0       	ldi	r20, 0x01	; 1
     69e:	64 e0       	ldi	r22, 0x04	; 4
     6a0:	82 e0       	ldi	r24, 0x02	; 2
     6a2:	0e 94 fb 04 	call	0x9f6	; 0x9f6 <DIO_SetPinDirection>
	DIO_SetPinDirection(MOTOR2_PORT, MOTOR2_PIN2, PIN_OUTPUT);
     6a6:	41 e0       	ldi	r20, 0x01	; 1
     6a8:	65 e0       	ldi	r22, 0x05	; 5
     6aa:	82 e0       	ldi	r24, 0x02	; 2
     6ac:	0e 94 fb 04 	call	0x9f6	; 0x9f6 <DIO_SetPinDirection>
	gu8_InitFlag = INIT;//SET INIT FLAG
     6b0:	81 e0       	ldi	r24, 0x01	; 1
     6b2:	80 93 6c 00 	sts	0x006C, r24	; 0x80006c <__data_end>
	gu8_ERROR_STAT = MOTOR_SUCCESS;//STORE MOTOR_SUCCESS IN ERRROR STAT
     6b6:	10 92 6d 00 	sts	0x006D, r1	; 0x80006d <gu8_ERROR_STAT>
	}
	/*STOP MOTOER EN PINS AT THE START*/
	return gu8_ERROR_STAT ;//RETURN FROM THE API
}
     6ba:	80 91 6d 00 	lds	r24, 0x006D	; 0x80006d <gu8_ERROR_STAT>
     6be:	08 95       	ret

000006c0 <MOTOR_start>:
MOTOR_ERROR_state_t MOTOR_start(uint8_t motor_no,  uint8_t dir) {
	if (NOT_INIT == gu8_InitFlag) { //IF MOTOR IS NOT INITIALIZED
     6c0:	90 91 6c 00 	lds	r25, 0x006C	; 0x80006c <__data_end>
     6c4:	91 11       	cpse	r25, r1
     6c6:	04 c0       	rjmp	.+8      	; 0x6d0 <MOTOR_start+0x10>
		gu8_ERROR_STAT = MOTOR_NOT_INIT; //STORE NOT INIT IN ERRROR STAT
     6c8:	8e ef       	ldi	r24, 0xFE	; 254
     6ca:	80 93 6d 00 	sts	0x006D, r24	; 0x80006d <gu8_ERROR_STAT>
     6ce:	50 c0       	rjmp	.+160    	; 0x770 <MOTOR_start+0xb0>
	} else if (INIT == gu8_InitFlag) { //IF MOTOR IS INITIALIZED
     6d0:	91 30       	cpi	r25, 0x01	; 1
     6d2:	09 f0       	breq	.+2      	; 0x6d6 <MOTOR_start+0x16>
     6d4:	4d c0       	rjmp	.+154    	; 0x770 <MOTOR_start+0xb0>
	switch (motor_no) {
     6d6:	88 23       	and	r24, r24
     6d8:	19 f0       	breq	.+6      	; 0x6e0 <MOTOR_start+0x20>
     6da:	81 30       	cpi	r24, 0x01	; 1
     6dc:	19 f1       	breq	.+70     	; 0x724 <MOTOR_start+0x64>
     6de:	45 c0       	rjmp	.+138    	; 0x76a <MOTOR_start+0xaa>
	case MOTOR1 :
		switch (dir) {
     6e0:	66 23       	and	r22, r22
     6e2:	61 f0       	breq	.+24     	; 0x6fc <MOTOR_start+0x3c>
     6e4:	61 30       	cpi	r22, 0x01	; 1
     6e6:	a9 f4       	brne	.+42     	; 0x712 <MOTOR_start+0x52>
		case MOTOR_FORWARD :
			DIO_WritePin(MOTOR1_PORT, MOTOR1_PIN1,PIN_HIGH);
     6e8:	41 e0       	ldi	r20, 0x01	; 1
     6ea:	82 e0       	ldi	r24, 0x02	; 2
     6ec:	0e 94 54 05 	call	0xaa8	; 0xaa8 <DIO_WritePin>
			DIO_WritePin(MOTOR1_PORT, MOTOR1_PIN2,PIN_LOW);
     6f0:	40 e0       	ldi	r20, 0x00	; 0
     6f2:	62 e0       	ldi	r22, 0x02	; 2
     6f4:	82 e0       	ldi	r24, 0x02	; 2
     6f6:	0e 94 54 05 	call	0xaa8	; 0xaa8 <DIO_WritePin>
			break;
     6fa:	0e c0       	rjmp	.+28     	; 0x718 <MOTOR_start+0x58>
		case MOTOR_BACKWARD :
			DIO_WritePin(MOTOR1_PORT, MOTOR1_PIN1,PIN_LOW);
     6fc:	40 e0       	ldi	r20, 0x00	; 0
     6fe:	61 e0       	ldi	r22, 0x01	; 1
     700:	82 e0       	ldi	r24, 0x02	; 2
     702:	0e 94 54 05 	call	0xaa8	; 0xaa8 <DIO_WritePin>
			DIO_WritePin(MOTOR1_PORT, MOTOR1_PIN2,PIN_HIGH);
     706:	41 e0       	ldi	r20, 0x01	; 1
     708:	62 e0       	ldi	r22, 0x02	; 2
     70a:	82 e0       	ldi	r24, 0x02	; 2
     70c:	0e 94 54 05 	call	0xaa8	; 0xaa8 <DIO_WritePin>
			break;
     710:	03 c0       	rjmp	.+6      	; 0x718 <MOTOR_start+0x58>
		default:
		gu8_ERROR_STAT=MOTOR_INVALID_DIR;
     712:	8d ef       	ldi	r24, 0xFD	; 253
     714:	80 93 6d 00 	sts	0x006D, r24	; 0x80006d <gu8_ERROR_STAT>
		//RETURN MOTOR_INVALID_DIR
			break;
		}
		DIO_WritePin(MOTOR1_PORT, MOTOR1_PIN0,PIN_HIGH);
     718:	41 e0       	ldi	r20, 0x01	; 1
     71a:	60 e0       	ldi	r22, 0x00	; 0
     71c:	82 e0       	ldi	r24, 0x02	; 2
     71e:	0e 94 54 05 	call	0xaa8	; 0xaa8 <DIO_WritePin>
		break;
     722:	26 c0       	rjmp	.+76     	; 0x770 <MOTOR_start+0xb0>
	case MOTOR2 :
		switch (dir) {
     724:	66 23       	and	r22, r22
     726:	69 f0       	breq	.+26     	; 0x742 <MOTOR_start+0x82>
     728:	61 30       	cpi	r22, 0x01	; 1
     72a:	b1 f4       	brne	.+44     	; 0x758 <MOTOR_start+0x98>
		case MOTOR_FORWARD :
			DIO_WritePin(MOTOR2_PORT, MOTOR2_PIN1,PIN_HIGH);
     72c:	41 e0       	ldi	r20, 0x01	; 1
     72e:	64 e0       	ldi	r22, 0x04	; 4
     730:	82 e0       	ldi	r24, 0x02	; 2
     732:	0e 94 54 05 	call	0xaa8	; 0xaa8 <DIO_WritePin>
			DIO_WritePin(MOTOR2_PORT, MOTOR2_PIN2,PIN_LOW);
     736:	40 e0       	ldi	r20, 0x00	; 0
     738:	65 e0       	ldi	r22, 0x05	; 5
     73a:	82 e0       	ldi	r24, 0x02	; 2
     73c:	0e 94 54 05 	call	0xaa8	; 0xaa8 <DIO_WritePin>
			break;
     740:	0e c0       	rjmp	.+28     	; 0x75e <MOTOR_start+0x9e>
		case MOTOR_BACKWARD :
			DIO_WritePin(MOTOR2_PORT, MOTOR2_PIN1,PIN_LOW);
     742:	40 e0       	ldi	r20, 0x00	; 0
     744:	64 e0       	ldi	r22, 0x04	; 4
     746:	82 e0       	ldi	r24, 0x02	; 2
     748:	0e 94 54 05 	call	0xaa8	; 0xaa8 <DIO_WritePin>
			DIO_WritePin(MOTOR2_PORT, MOTOR2_PIN2,PIN_HIGH);
     74c:	41 e0       	ldi	r20, 0x01	; 1
     74e:	65 e0       	ldi	r22, 0x05	; 5
     750:	82 e0       	ldi	r24, 0x02	; 2
     752:	0e 94 54 05 	call	0xaa8	; 0xaa8 <DIO_WritePin>
			break;
     756:	03 c0       	rjmp	.+6      	; 0x75e <MOTOR_start+0x9e>
		default:
		gu8_ERROR_STAT=MOTOR_INVALID_DIR;
     758:	8d ef       	ldi	r24, 0xFD	; 253
     75a:	80 93 6d 00 	sts	0x006D, r24	; 0x80006d <gu8_ERROR_STAT>
			break;
		}
		DIO_WritePin(MOTOR2_PORT, MOTOR2_PIN0,PIN_HIGH);
     75e:	41 e0       	ldi	r20, 0x01	; 1
     760:	63 e0       	ldi	r22, 0x03	; 3
     762:	82 e0       	ldi	r24, 0x02	; 2
     764:	0e 94 54 05 	call	0xaa8	; 0xaa8 <DIO_WritePin>
		break;
     768:	03 c0       	rjmp	.+6      	; 0x770 <MOTOR_start+0xb0>
	default:
	gu8_ERROR_STAT=MOTOR_INVALID_CH;
     76a:	8c ef       	ldi	r24, 0xFC	; 252
     76c:	80 93 6d 00 	sts	0x006D, r24	; 0x80006d <gu8_ERROR_STAT>
		break;
	}
	}
	return gu8_ERROR_STAT ;
}
     770:	80 91 6d 00 	lds	r24, 0x006D	; 0x80006d <gu8_ERROR_STAT>
     774:	08 95       	ret

00000776 <MOTOR_stop>:
MOTOR_ERROR_state_t MOTOR_stop(uint8_t motor_no) {
	switch (motor_no){
     776:	88 23       	and	r24, r24
     778:	19 f0       	breq	.+6      	; 0x780 <MOTOR_stop+0xa>
     77a:	81 30       	cpi	r24, 0x01	; 1
     77c:	89 f0       	breq	.+34     	; 0x7a0 <MOTOR_stop+0x2a>
     77e:	20 c0       	rjmp	.+64     	; 0x7c0 <MOTOR_stop+0x4a>
	case MOTOR1:
      DIO_WritePin(MOTOR1_PORT, MOTOR1_PIN1,PIN_HIGH);
     780:	41 e0       	ldi	r20, 0x01	; 1
     782:	61 e0       	ldi	r22, 0x01	; 1
     784:	82 e0       	ldi	r24, 0x02	; 2
     786:	0e 94 54 05 	call	0xaa8	; 0xaa8 <DIO_WritePin>
      DIO_WritePin(MOTOR1_PORT, MOTOR1_PIN2,PIN_HIGH);
     78a:	41 e0       	ldi	r20, 0x01	; 1
     78c:	62 e0       	ldi	r22, 0x02	; 2
     78e:	82 e0       	ldi	r24, 0x02	; 2
     790:	0e 94 54 05 	call	0xaa8	; 0xaa8 <DIO_WritePin>
		DIO_WritePin(MOTOR1_PORT, MOTOR1_PIN0,PIN_LOW);//MAKE ENABLE PIN LOW
     794:	40 e0       	ldi	r20, 0x00	; 0
     796:	60 e0       	ldi	r22, 0x00	; 0
     798:	82 e0       	ldi	r24, 0x02	; 2
     79a:	0e 94 54 05 	call	0xaa8	; 0xaa8 <DIO_WritePin>
		break;
     79e:	13 c0       	rjmp	.+38     	; 0x7c6 <MOTOR_stop+0x50>
	case MOTOR2:
		DIO_WritePin(MOTOR2_PORT, MOTOR2_PIN1,PIN_HIGH);
     7a0:	41 e0       	ldi	r20, 0x01	; 1
     7a2:	64 e0       	ldi	r22, 0x04	; 4
     7a4:	82 e0       	ldi	r24, 0x02	; 2
     7a6:	0e 94 54 05 	call	0xaa8	; 0xaa8 <DIO_WritePin>
		DIO_WritePin(MOTOR2_PORT, MOTOR2_PIN2,PIN_HIGH);
     7aa:	41 e0       	ldi	r20, 0x01	; 1
     7ac:	65 e0       	ldi	r22, 0x05	; 5
     7ae:	82 e0       	ldi	r24, 0x02	; 2
     7b0:	0e 94 54 05 	call	0xaa8	; 0xaa8 <DIO_WritePin>
      DIO_WritePin(MOTOR2_PORT, MOTOR2_PIN0,PIN_LOW);//MAKE ENABLE PIN LOW
     7b4:	40 e0       	ldi	r20, 0x00	; 0
     7b6:	63 e0       	ldi	r22, 0x03	; 3
     7b8:	82 e0       	ldi	r24, 0x02	; 2
     7ba:	0e 94 54 05 	call	0xaa8	; 0xaa8 <DIO_WritePin>
		break;
     7be:	03 c0       	rjmp	.+6      	; 0x7c6 <MOTOR_stop+0x50>
	default:
	gu8_ERROR_STAT=MOTOR_INVALID_CH;
     7c0:	8c ef       	ldi	r24, 0xFC	; 252
     7c2:	80 93 6d 00 	sts	0x006D, r24	; 0x80006d <gu8_ERROR_STAT>
		break;
	}
	return gu8_ERROR_STAT ;
}
     7c6:	80 91 6d 00 	lds	r24, 0x006D	; 0x80006d <gu8_ERROR_STAT>
     7ca:	08 95       	ret

000007cc <USONIC_Init>:
/*
 * THIS API INITIALIZE THE ULTRASONIC
 * */
USONIC_ERROR_state_t USONIC_Init(void) {
	/*CHECK IF ULTASONIC HAS BEEN INITIALIZED*/
	if (INIT == gu8_InitFlag) {//IF ULTRA SONIC IS INITIALIZED
     7cc:	80 91 6f 00 	lds	r24, 0x006F	; 0x80006f <gu8_InitFlag>
     7d0:	81 30       	cpi	r24, 0x01	; 1
     7d2:	21 f4       	brne	.+8      	; 0x7dc <USONIC_Init+0x10>
		gu8_ERROR_STAT = USONIC_SEC_INIT;//STORE SEC INIT IN ERRROR STAT
     7d4:	8f ef       	ldi	r24, 0xFF	; 255
     7d6:	80 93 70 00 	sts	0x0070, r24	; 0x800070 <gu8_ERROR_STAT>
     7da:	0f c0       	rjmp	.+30     	; 0x7fa <USONIC_Init+0x2e>
	} else if (NOT_INIT == gu8_InitFlag) {//IF ULTRA SONIC IS NOT INITIALIZED
     7dc:	81 11       	cpse	r24, r1
     7de:	0d c0       	rjmp	.+26     	; 0x7fa <USONIC_Init+0x2e>
		DIO_SetPinDirection(USONIC_TRIG_PORT, USONIC_TRIG_PIN, PIN_OUTPUT); //SET THE TRIGGER PIN AS AN OUTPUT
     7e0:	41 e0       	ldi	r20, 0x01	; 1
     7e2:	60 e0       	ldi	r22, 0x00	; 0
     7e4:	83 e0       	ldi	r24, 0x03	; 3
     7e6:	0e 94 fb 04 	call	0x9f6	; 0x9f6 <DIO_SetPinDirection>
		ICU_Init(ICU_1); //INIT THE ICU CH 1
     7ea:	81 e0       	ldi	r24, 0x01	; 1
     7ec:	0e 94 e3 05 	call	0xbc6	; 0xbc6 <ICU_Init>
		gu8_InitFlag = INIT;
     7f0:	81 e0       	ldi	r24, 0x01	; 1
     7f2:	80 93 6f 00 	sts	0x006F, r24	; 0x80006f <gu8_InitFlag>
		gu8_ERROR_STAT=USONIC_SUCCESS;
     7f6:	10 92 70 00 	sts	0x0070, r1	; 0x800070 <gu8_ERROR_STAT>
	} else {
		//DO NOTHING
	}
	return gu8_ERROR_STAT ;
}
     7fa:	80 91 70 00 	lds	r24, 0x0070	; 0x800070 <gu8_ERROR_STAT>
     7fe:	08 95       	ret

00000800 <USONIC_GetDistance>:
/*
 * THIS API GET THE DISTANCE
 * */
USONIC_ERROR_state_t USONIC_GetDistance(ptr_double64_t distance) {
     800:	0f 93       	push	r16
     802:	1f 93       	push	r17
     804:	cf 93       	push	r28
     806:	df 93       	push	r29
     808:	00 d0       	rcall	.+0      	; 0x80a <USONIC_GetDistance+0xa>
     80a:	00 d0       	rcall	.+0      	; 0x80c <USONIC_GetDistance+0xc>
     80c:	cd b7       	in	r28, 0x3d	; 61
     80e:	de b7       	in	r29, 0x3e	; 62
     810:	9c 01       	movw	r18, r24
	static uint8_t ICU_STAT = START_STATE;
	double64_t au64_TIME = 0;
     812:	19 82       	std	Y+1, r1	; 0x01
     814:	1a 82       	std	Y+2, r1	; 0x02
     816:	1b 82       	std	Y+3, r1	; 0x03
     818:	1c 82       	std	Y+4, r1	; 0x04
	/*CHECK IF ULTASONIC HAS BEEN INITIALIZED*/
	if (NOT_INIT == gu8_InitFlag) { //IF ULTRA SONIC IS NOT INITIALIZED
     81a:	90 91 6f 00 	lds	r25, 0x006F	; 0x80006f <gu8_InitFlag>
     81e:	91 11       	cpse	r25, r1
     820:	04 c0       	rjmp	.+8      	; 0x82a <USONIC_GetDistance+0x2a>
		gu8_ERROR_STAT = USONIC_NOT_INIT; //STORE NOT INIT IN ERRROR STAT
     822:	8e ef       	ldi	r24, 0xFE	; 254
     824:	80 93 70 00 	sts	0x0070, r24	; 0x800070 <gu8_ERROR_STAT>
     828:	5d c0       	rjmp	.+186    	; 0x8e4 <__stack+0x85>
	} else if (INIT == gu8_InitFlag) { //IF ULTRA SONIC IS INITIALIZED
     82a:	91 30       	cpi	r25, 0x01	; 1
     82c:	09 f0       	breq	.+2      	; 0x830 <USONIC_GetDistance+0x30>
     82e:	5a c0       	rjmp	.+180    	; 0x8e4 <__stack+0x85>
		/*CHECK IF ptr_float32_t distance EUALS NULL */
		if (NULL_PTR == distance) {
     830:	21 15       	cp	r18, r1
     832:	31 05       	cpc	r19, r1
     834:	21 f4       	brne	.+8      	; 0x83e <USONIC_GetDistance+0x3e>
			gu8_ERROR_STAT = USONIC_NULL_POINTER; //STORE NOT INIT IN ERRROR STAT
     836:	8d ef       	ldi	r24, 0xFD	; 253
     838:	80 93 70 00 	sts	0x0070, r24	; 0x800070 <gu8_ERROR_STAT>
     83c:	53 c0       	rjmp	.+166    	; 0x8e4 <__stack+0x85>
     83e:	89 01       	movw	r16, r18
		} else {
			/*CHECK IF THE ICU IS NOT STARTED YET*/
			if (START_STATE == ICU_STAT) {
     840:	80 91 6e 00 	lds	r24, 0x006E	; 0x80006e <ICU_STAT.1694>
     844:	81 11       	cpse	r24, r1
     846:	26 c0       	rjmp	.+76     	; 0x894 <__stack+0x35>
            gu8_ERROR_STAT = NOT_OK;
     848:	81 e0       	ldi	r24, 0x01	; 1
     84a:	80 93 70 00 	sts	0x0070, r24	; 0x800070 <gu8_ERROR_STAT>
				/*FIRE THE ULTASONIC TRIGGER*/
				DIO_WritePin(USONIC_TRIG_PORT, USONIC_TRIG_PIN, PIN_HIGH); //SET TRIGGER PIN
     84e:	41 e0       	ldi	r20, 0x01	; 1
     850:	60 e0       	ldi	r22, 0x00	; 0
     852:	83 e0       	ldi	r24, 0x03	; 3
     854:	0e 94 54 05 	call	0xaa8	; 0xaa8 <DIO_WritePin>
				do
					TIM_DelayUs(TIMER_0, TRIG_TIME); //WAIT 10 MICRO SEC
     858:	4a e0       	ldi	r20, 0x0A	; 10
     85a:	50 e0       	ldi	r21, 0x00	; 0
     85c:	60 e0       	ldi	r22, 0x00	; 0
     85e:	70 e0       	ldi	r23, 0x00	; 0
     860:	80 e0       	ldi	r24, 0x00	; 0
     862:	0e 94 a5 07 	call	0xf4a	; 0xf4a <TIM_DelayUs>
				while (OK != TIM_DelayUs(TIMER_0, TRIG_TIME));
     866:	4a e0       	ldi	r20, 0x0A	; 10
     868:	50 e0       	ldi	r21, 0x00	; 0
     86a:	60 e0       	ldi	r22, 0x00	; 0
     86c:	70 e0       	ldi	r23, 0x00	; 0
     86e:	80 e0       	ldi	r24, 0x00	; 0
     870:	0e 94 a5 07 	call	0xf4a	; 0xf4a <TIM_DelayUs>
     874:	81 11       	cpse	r24, r1
     876:	f0 cf       	rjmp	.-32     	; 0x858 <USONIC_GetDistance+0x58>
				DIO_WritePin(USONIC_TRIG_PORT, USONIC_TRIG_PIN, PIN_LOW); //CLEAR TRIGER PIN
     878:	40 e0       	ldi	r20, 0x00	; 0
     87a:	60 e0       	ldi	r22, 0x00	; 0
     87c:	83 e0       	ldi	r24, 0x03	; 3
     87e:	0e 94 54 05 	call	0xaa8	; 0xaa8 <DIO_WritePin>
				ICU_UpdateTimeOn(ICU_1, &ICU_STAT, &au64_TIME); //START ICU
     882:	ae 01       	movw	r20, r28
     884:	4f 5f       	subi	r20, 0xFF	; 255
     886:	5f 4f       	sbci	r21, 0xFF	; 255
     888:	6e e6       	ldi	r22, 0x6E	; 110
     88a:	70 e0       	ldi	r23, 0x00	; 0
     88c:	81 e0       	ldi	r24, 0x01	; 1
     88e:	0e 94 f2 05 	call	0xbe4	; 0xbe4 <ICU_UpdateTimeOn>
     892:	28 c0       	rjmp	.+80     	; 0x8e4 <__stack+0x85>
			} else  { //IF ICU IS NOT FINISHED
				ICU_UpdateTimeOn(ICU_1, &ICU_STAT, &au64_TIME); //CALL ICU UPDATE
     894:	ae 01       	movw	r20, r28
     896:	4f 5f       	subi	r20, 0xFF	; 255
     898:	5f 4f       	sbci	r21, 0xFF	; 255
     89a:	6e e6       	ldi	r22, 0x6E	; 110
     89c:	70 e0       	ldi	r23, 0x00	; 0
     89e:	81 e0       	ldi	r24, 0x01	; 1
     8a0:	0e 94 f2 05 	call	0xbe4	; 0xbe4 <ICU_UpdateTimeOn>
				gu8_ERROR_STAT = USONIC_PENDING; //STORE PENDING
     8a4:	8c ef       	ldi	r24, 0xFC	; 252
     8a6:	80 93 70 00 	sts	0x0070, r24	; 0x800070 <gu8_ERROR_STAT>
            if (END_STATE == ICU_STAT) { //IF ICU IS FINISHED
     8aa:	80 91 6e 00 	lds	r24, 0x006E	; 0x80006e <ICU_STAT.1694>
     8ae:	83 30       	cpi	r24, 0x03	; 3
     8b0:	c9 f4       	brne	.+50     	; 0x8e4 <__stack+0x85>
               *(distance) = (((SOUND_SPPED) * au64_TIME) / 2); //CALCULATE THE DISTANCE
     8b2:	20 e0       	ldi	r18, 0x00	; 0
     8b4:	3c ef       	ldi	r19, 0xFC	; 252
     8b6:	45 e0       	ldi	r20, 0x05	; 5
     8b8:	57 e4       	ldi	r21, 0x47	; 71
     8ba:	69 81       	ldd	r22, Y+1	; 0x01
     8bc:	7a 81       	ldd	r23, Y+2	; 0x02
     8be:	8b 81       	ldd	r24, Y+3	; 0x03
     8c0:	9c 81       	ldd	r25, Y+4	; 0x04
     8c2:	0e 94 70 0a 	call	0x14e0	; 0x14e0 <__mulsf3>
     8c6:	20 e0       	ldi	r18, 0x00	; 0
     8c8:	30 e0       	ldi	r19, 0x00	; 0
     8ca:	40 e0       	ldi	r20, 0x00	; 0
     8cc:	5f e3       	ldi	r21, 0x3F	; 63
     8ce:	0e 94 70 0a 	call	0x14e0	; 0x14e0 <__mulsf3>
     8d2:	f8 01       	movw	r30, r16
     8d4:	60 83       	st	Z, r22
     8d6:	71 83       	std	Z+1, r23	; 0x01
     8d8:	82 83       	std	Z+2, r24	; 0x02
     8da:	93 83       	std	Z+3, r25	; 0x03
               ICU_STAT = START_STATE; //RESET ICU STAT
     8dc:	10 92 6e 00 	sts	0x006E, r1	; 0x80006e <ICU_STAT.1694>
               gu8_ERROR_STAT = OK; //RETURN OK(FINISHED)
     8e0:	10 92 70 00 	sts	0x0070, r1	; 0x800070 <gu8_ERROR_STAT>
		}
	} else {
		//DO NOTHING
	}
	return gu8_ERROR_STAT; //RETURN API STAT
}
     8e4:	80 91 70 00 	lds	r24, 0x0070	; 0x800070 <gu8_ERROR_STAT>
     8e8:	0f 90       	pop	r0
     8ea:	0f 90       	pop	r0
     8ec:	0f 90       	pop	r0
     8ee:	0f 90       	pop	r0
     8f0:	df 91       	pop	r29
     8f2:	cf 91       	pop	r28
     8f4:	1f 91       	pop	r17
     8f6:	0f 91       	pop	r16
     8f8:	08 95       	ret

000008fa <STR_StringReverse>:
	}
	STR_StringReverse(SringCpy);
	return 0;
}
uint8_t STR_StringReverse(uint8_t* String)
{
     8fa:	dc 01       	movw	r26, r24
	uint8_t* A = String;
	uint8_t* B = String;
     8fc:	fc 01       	movw	r30, r24
	uint8_t Temp = 0;
	while(*B != '\0')
     8fe:	01 c0       	rjmp	.+2      	; 0x902 <STR_StringReverse+0x8>
	{
		B++;
     900:	31 96       	adiw	r30, 0x01	; 1
uint8_t STR_StringReverse(uint8_t* String)
{
	uint8_t* A = String;
	uint8_t* B = String;
	uint8_t Temp = 0;
	while(*B != '\0')
     902:	80 81       	ld	r24, Z
     904:	81 11       	cpse	r24, r1
     906:	fc cf       	rjmp	.-8      	; 0x900 <STR_StringReverse+0x6>
	{
		B++;
	}
	B--;
     908:	31 97       	sbiw	r30, 0x01	; 1
	while(A<B)
     90a:	05 c0       	rjmp	.+10     	; 0x916 <STR_StringReverse+0x1c>
	{
		//swap
		Temp=*A;
     90c:	8c 91       	ld	r24, X
		*A=*B;
     90e:	90 81       	ld	r25, Z
     910:	9d 93       	st	X+, r25
		*B=Temp;
     912:	80 83       	st	Z, r24
		A++;B--;
     914:	31 97       	sbiw	r30, 0x01	; 1
	while(*B != '\0')
	{
		B++;
	}
	B--;
	while(A<B)
     916:	ae 17       	cp	r26, r30
     918:	bf 07       	cpc	r27, r31
     91a:	c0 f3       	brcs	.-16     	; 0x90c <STR_StringReverse+0x12>
		*A=*B;
		*B=Temp;
		A++;B--;
	}
	return 0;
}
     91c:	80 e0       	ldi	r24, 0x00	; 0
     91e:	08 95       	ret

00000920 <STR_Number2String>:
		Multiplier*=10;
	}while(String!=StartOfString);
	return 0;
}
uint8_t STR_Number2String(uint32_t Number, uint8_t* String)
{
     920:	0f 93       	push	r16
     922:	1f 93       	push	r17
     924:	cf 93       	push	r28
     926:	df 93       	push	r29
     928:	8a 01       	movw	r16, r20
	uint8_t* SringCpy = String;
	if(Number==0)
     92a:	61 15       	cp	r22, r1
     92c:	71 05       	cpc	r23, r1
     92e:	81 05       	cpc	r24, r1
     930:	91 05       	cpc	r25, r1
     932:	21 f4       	brne	.+8      	; 0x93c <STR_Number2String+0x1c>
	{
		*String='0';
     934:	80 e3       	ldi	r24, 0x30	; 48
     936:	fa 01       	movw	r30, r20
     938:	80 83       	st	Z, r24
     93a:	13 c0       	rjmp	.+38     	; 0x962 <STR_Number2String+0x42>
     93c:	ea 01       	movw	r28, r20
	}
	else
	{
		do
		{
			*String = (Number%10)+48;
     93e:	2a e0       	ldi	r18, 0x0A	; 10
     940:	30 e0       	ldi	r19, 0x00	; 0
     942:	40 e0       	ldi	r20, 0x00	; 0
     944:	50 e0       	ldi	r21, 0x00	; 0
     946:	0e 94 dd 0a 	call	0x15ba	; 0x15ba <__udivmodsi4>
     94a:	60 5d       	subi	r22, 0xD0	; 208
     94c:	69 93       	st	Y+, r22
			String++;
			Number/=10;
     94e:	62 2f       	mov	r22, r18
     950:	73 2f       	mov	r23, r19
     952:	84 2f       	mov	r24, r20
     954:	95 2f       	mov	r25, r21
		}while(Number);
     956:	61 15       	cp	r22, r1
     958:	71 05       	cpc	r23, r1
     95a:	81 05       	cpc	r24, r1
     95c:	91 05       	cpc	r25, r1
     95e:	79 f7       	brne	.-34     	; 0x93e <STR_Number2String+0x1e>
		*String = NULL_TERMINATOR;
     960:	18 82       	st	Y, r1
	}
	STR_StringReverse(SringCpy);
     962:	c8 01       	movw	r24, r16
     964:	0e 94 7d 04 	call	0x8fa	; 0x8fa <STR_StringReverse>
	return 0;
}
     968:	80 e0       	ldi	r24, 0x00	; 0
     96a:	df 91       	pop	r29
     96c:	cf 91       	pop	r28
     96e:	1f 91       	pop	r17
     970:	0f 91       	pop	r16
     972:	08 95       	ret

00000974 <main>:

#define PORTB_DATA      (*((volatile uint8_t *) (0x38)))
#define PORTB_DIR       (*((volatile uint8_t *) (0x37)))

int main(void)
{
     974:	cf 93       	push	r28
     976:	df 93       	push	r29
     978:	00 d0       	rcall	.+0      	; 0x97a <main+0x6>
     97a:	00 d0       	rcall	.+0      	; 0x97c <main+0x8>
     97c:	cd b7       	in	r28, 0x3d	; 61
     97e:	de b7       	in	r29, 0x3e	; 62
   USONIC_Init();
     980:	0e 94 e6 03 	call	0x7cc	; 0x7cc <USONIC_Init>
   while(LCD_Init()!= OperationSuccess);
     984:	0e 94 fb 01 	call	0x3f6	; 0x3f6 <LCD_Init>
     988:	81 11       	cpse	r24, r1
     98a:	fc cf       	rjmp	.-8      	; 0x984 <main+0x10>
   //LCD_Init();
   MOTOR_init();
     98c:	0e 94 30 03 	call	0x660	; 0x660 <MOTOR_init>
   double64_t distance;
   USONIC_ERROR_state_t USonic_State;
   while(1)
   {
      USonic_State = USONIC_GetDistance(&distance);
     990:	ce 01       	movw	r24, r28
     992:	01 96       	adiw	r24, 0x01	; 1
     994:	0e 94 00 04 	call	0x800	; 0x800 <USONIC_GetDistance>
      if(OK==USonic_State)
     998:	81 11       	cpse	r24, r1
     99a:	fa cf       	rjmp	.-12     	; 0x990 <main+0x1c>
      {
         while(LCD_SendCommand(LCD_CLR) != OperationSuccess);
     99c:	81 e0       	ldi	r24, 0x01	; 1
     99e:	0e 94 50 00 	call	0xa0	; 0xa0 <LCD_SendCommand>
     9a2:	81 11       	cpse	r24, r1
     9a4:	fb cf       	rjmp	.-10     	; 0x99c <main+0x28>
         LCD_SendNumber((uint32_t)(distance));
     9a6:	69 81       	ldd	r22, Y+1	; 0x01
     9a8:	7a 81       	ldd	r23, Y+2	; 0x02
     9aa:	8b 81       	ldd	r24, Y+3	; 0x03
     9ac:	9c 81       	ldd	r25, Y+4	; 0x04
     9ae:	0e 94 8f 09 	call	0x131e	; 0x131e <__fixunssfsi>
     9b2:	0e 94 11 03 	call	0x622	; 0x622 <LCD_SendNumber>
         MOTOR_start(MOTOR1,MOTOR_FORWARD);
     9b6:	61 e0       	ldi	r22, 0x01	; 1
     9b8:	80 e0       	ldi	r24, 0x00	; 0
     9ba:	0e 94 60 03 	call	0x6c0	; 0x6c0 <MOTOR_start>
         MOTOR_start(MOTOR2,MOTOR_BACKWARD);
     9be:	60 e0       	ldi	r22, 0x00	; 0
     9c0:	81 e0       	ldi	r24, 0x01	; 1
     9c2:	0e 94 60 03 	call	0x6c0	; 0x6c0 <MOTOR_start>
         while(TIM_DelayUs(TIMER_2, 500000) != TIMER_E_SUCCESS);
     9c6:	40 e2       	ldi	r20, 0x20	; 32
     9c8:	51 ea       	ldi	r21, 0xA1	; 161
     9ca:	67 e0       	ldi	r22, 0x07	; 7
     9cc:	70 e0       	ldi	r23, 0x00	; 0
     9ce:	82 e0       	ldi	r24, 0x02	; 2
     9d0:	0e 94 a5 07 	call	0xf4a	; 0xf4a <TIM_DelayUs>
     9d4:	81 11       	cpse	r24, r1
     9d6:	f7 cf       	rjmp	.-18     	; 0x9c6 <main+0x52>
         MOTOR_stop(MOTOR1);
     9d8:	0e 94 bb 03 	call	0x776	; 0x776 <MOTOR_stop>
         MOTOR_stop(MOTOR2);
     9dc:	81 e0       	ldi	r24, 0x01	; 1
     9de:	0e 94 bb 03 	call	0x776	; 0x776 <MOTOR_stop>
         while(TIM_DelayUs(TIMER_2, 500000) != TIMER_E_SUCCESS);
     9e2:	40 e2       	ldi	r20, 0x20	; 32
     9e4:	51 ea       	ldi	r21, 0xA1	; 161
     9e6:	67 e0       	ldi	r22, 0x07	; 7
     9e8:	70 e0       	ldi	r23, 0x00	; 0
     9ea:	82 e0       	ldi	r24, 0x02	; 2
     9ec:	0e 94 a5 07 	call	0xf4a	; 0xf4a <TIM_DelayUs>
     9f0:	81 11       	cpse	r24, r1
     9f2:	f7 cf       	rjmp	.-18     	; 0x9e2 <main+0x6e>
     9f4:	cd cf       	rjmp	.-102    	; 0x990 <main+0x1c>

000009f6 <DIO_SetPinDirection>:

#include "DIO.h"

uint8_t DIO_SetPinDirection(uint8_t PortName , uint8_t PinNo ,uint8_t PinDirection)
{
	switch(PortName)
     9f6:	81 30       	cpi	r24, 0x01	; 1
     9f8:	d1 f0       	breq	.+52     	; 0xa2e <DIO_SetPinDirection+0x38>
     9fa:	28 f0       	brcs	.+10     	; 0xa06 <DIO_SetPinDirection+0x10>
     9fc:	82 30       	cpi	r24, 0x02	; 2
     9fe:	59 f1       	breq	.+86     	; 0xa56 <DIO_SetPinDirection+0x60>
     a00:	83 30       	cpi	r24, 0x03	; 3
     a02:	e9 f1       	breq	.+122    	; 0xa7e <DIO_SetPinDirection+0x88>
     a04:	4f c0       	rjmp	.+158    	; 0xaa4 <DIO_SetPinDirection+0xae>
	{
		case PORT_A:
			BIT_WRITE(DDRA,PinNo,PinDirection);
     a06:	2a b3       	in	r18, 0x1a	; 26
     a08:	81 e0       	ldi	r24, 0x01	; 1
     a0a:	90 e0       	ldi	r25, 0x00	; 0
     a0c:	06 2e       	mov	r0, r22
     a0e:	02 c0       	rjmp	.+4      	; 0xa14 <DIO_SetPinDirection+0x1e>
     a10:	88 0f       	add	r24, r24
     a12:	99 1f       	adc	r25, r25
     a14:	0a 94       	dec	r0
     a16:	e2 f7       	brpl	.-8      	; 0xa10 <DIO_SetPinDirection+0x1a>
     a18:	50 e0       	ldi	r21, 0x00	; 0
     a1a:	02 c0       	rjmp	.+4      	; 0xa20 <DIO_SetPinDirection+0x2a>
     a1c:	44 0f       	add	r20, r20
     a1e:	55 1f       	adc	r21, r21
     a20:	6a 95       	dec	r22
     a22:	e2 f7       	brpl	.-8      	; 0xa1c <DIO_SetPinDirection+0x26>
     a24:	80 95       	com	r24
     a26:	82 23       	and	r24, r18
     a28:	48 2b       	or	r20, r24
     a2a:	4a bb       	out	0x1a, r20	; 26
			break;
     a2c:	3b c0       	rjmp	.+118    	; 0xaa4 <DIO_SetPinDirection+0xae>
		case PORT_B:
			BIT_WRITE(DDRB,PinNo,PinDirection);
     a2e:	27 b3       	in	r18, 0x17	; 23
     a30:	81 e0       	ldi	r24, 0x01	; 1
     a32:	90 e0       	ldi	r25, 0x00	; 0
     a34:	06 2e       	mov	r0, r22
     a36:	02 c0       	rjmp	.+4      	; 0xa3c <DIO_SetPinDirection+0x46>
     a38:	88 0f       	add	r24, r24
     a3a:	99 1f       	adc	r25, r25
     a3c:	0a 94       	dec	r0
     a3e:	e2 f7       	brpl	.-8      	; 0xa38 <DIO_SetPinDirection+0x42>
     a40:	50 e0       	ldi	r21, 0x00	; 0
     a42:	02 c0       	rjmp	.+4      	; 0xa48 <DIO_SetPinDirection+0x52>
     a44:	44 0f       	add	r20, r20
     a46:	55 1f       	adc	r21, r21
     a48:	6a 95       	dec	r22
     a4a:	e2 f7       	brpl	.-8      	; 0xa44 <DIO_SetPinDirection+0x4e>
     a4c:	80 95       	com	r24
     a4e:	82 23       	and	r24, r18
     a50:	48 2b       	or	r20, r24
     a52:	47 bb       	out	0x17, r20	; 23
			break;
     a54:	27 c0       	rjmp	.+78     	; 0xaa4 <DIO_SetPinDirection+0xae>
		case PORT_C:
			BIT_WRITE(DDRC,PinNo,PinDirection);
     a56:	24 b3       	in	r18, 0x14	; 20
     a58:	81 e0       	ldi	r24, 0x01	; 1
     a5a:	90 e0       	ldi	r25, 0x00	; 0
     a5c:	06 2e       	mov	r0, r22
     a5e:	02 c0       	rjmp	.+4      	; 0xa64 <DIO_SetPinDirection+0x6e>
     a60:	88 0f       	add	r24, r24
     a62:	99 1f       	adc	r25, r25
     a64:	0a 94       	dec	r0
     a66:	e2 f7       	brpl	.-8      	; 0xa60 <DIO_SetPinDirection+0x6a>
     a68:	50 e0       	ldi	r21, 0x00	; 0
     a6a:	02 c0       	rjmp	.+4      	; 0xa70 <DIO_SetPinDirection+0x7a>
     a6c:	44 0f       	add	r20, r20
     a6e:	55 1f       	adc	r21, r21
     a70:	6a 95       	dec	r22
     a72:	e2 f7       	brpl	.-8      	; 0xa6c <DIO_SetPinDirection+0x76>
     a74:	80 95       	com	r24
     a76:	82 23       	and	r24, r18
     a78:	48 2b       	or	r20, r24
     a7a:	44 bb       	out	0x14, r20	; 20
			break;
     a7c:	13 c0       	rjmp	.+38     	; 0xaa4 <DIO_SetPinDirection+0xae>
		case PORT_D:
			BIT_WRITE(DDRD,PinNo,PinDirection);
     a7e:	21 b3       	in	r18, 0x11	; 17
     a80:	81 e0       	ldi	r24, 0x01	; 1
     a82:	90 e0       	ldi	r25, 0x00	; 0
     a84:	06 2e       	mov	r0, r22
     a86:	02 c0       	rjmp	.+4      	; 0xa8c <DIO_SetPinDirection+0x96>
     a88:	88 0f       	add	r24, r24
     a8a:	99 1f       	adc	r25, r25
     a8c:	0a 94       	dec	r0
     a8e:	e2 f7       	brpl	.-8      	; 0xa88 <DIO_SetPinDirection+0x92>
     a90:	50 e0       	ldi	r21, 0x00	; 0
     a92:	02 c0       	rjmp	.+4      	; 0xa98 <DIO_SetPinDirection+0xa2>
     a94:	44 0f       	add	r20, r20
     a96:	55 1f       	adc	r21, r21
     a98:	6a 95       	dec	r22
     a9a:	e2 f7       	brpl	.-8      	; 0xa94 <DIO_SetPinDirection+0x9e>
     a9c:	80 95       	com	r24
     a9e:	82 23       	and	r24, r18
     aa0:	48 2b       	or	r20, r24
     aa2:	41 bb       	out	0x11, r20	; 17
			break;
		default:
			break;
	}
	return ERROR_OK;
}
     aa4:	80 e0       	ldi	r24, 0x00	; 0
     aa6:	08 95       	ret

00000aa8 <DIO_WritePin>:

uint8_t DIO_WritePin(uint8_t PortName , uint8_t PinNo ,uint8_t PinValue)
{
	switch(PortName)
     aa8:	81 30       	cpi	r24, 0x01	; 1
     aaa:	d1 f0       	breq	.+52     	; 0xae0 <DIO_WritePin+0x38>
     aac:	28 f0       	brcs	.+10     	; 0xab8 <DIO_WritePin+0x10>
     aae:	82 30       	cpi	r24, 0x02	; 2
     ab0:	59 f1       	breq	.+86     	; 0xb08 <DIO_WritePin+0x60>
     ab2:	83 30       	cpi	r24, 0x03	; 3
     ab4:	e9 f1       	breq	.+122    	; 0xb30 <DIO_WritePin+0x88>
     ab6:	4f c0       	rjmp	.+158    	; 0xb56 <DIO_WritePin+0xae>
	{
		case PORT_A:
			BIT_WRITE(PORTA,PinNo,PinValue);
     ab8:	2b b3       	in	r18, 0x1b	; 27
     aba:	81 e0       	ldi	r24, 0x01	; 1
     abc:	90 e0       	ldi	r25, 0x00	; 0
     abe:	06 2e       	mov	r0, r22
     ac0:	02 c0       	rjmp	.+4      	; 0xac6 <DIO_WritePin+0x1e>
     ac2:	88 0f       	add	r24, r24
     ac4:	99 1f       	adc	r25, r25
     ac6:	0a 94       	dec	r0
     ac8:	e2 f7       	brpl	.-8      	; 0xac2 <DIO_WritePin+0x1a>
     aca:	50 e0       	ldi	r21, 0x00	; 0
     acc:	02 c0       	rjmp	.+4      	; 0xad2 <DIO_WritePin+0x2a>
     ace:	44 0f       	add	r20, r20
     ad0:	55 1f       	adc	r21, r21
     ad2:	6a 95       	dec	r22
     ad4:	e2 f7       	brpl	.-8      	; 0xace <DIO_WritePin+0x26>
     ad6:	80 95       	com	r24
     ad8:	82 23       	and	r24, r18
     ada:	48 2b       	or	r20, r24
     adc:	4b bb       	out	0x1b, r20	; 27
			break;
     ade:	3b c0       	rjmp	.+118    	; 0xb56 <DIO_WritePin+0xae>
		case PORT_B:
			BIT_WRITE(PORTB,PinNo,PinValue);
     ae0:	28 b3       	in	r18, 0x18	; 24
     ae2:	81 e0       	ldi	r24, 0x01	; 1
     ae4:	90 e0       	ldi	r25, 0x00	; 0
     ae6:	06 2e       	mov	r0, r22
     ae8:	02 c0       	rjmp	.+4      	; 0xaee <DIO_WritePin+0x46>
     aea:	88 0f       	add	r24, r24
     aec:	99 1f       	adc	r25, r25
     aee:	0a 94       	dec	r0
     af0:	e2 f7       	brpl	.-8      	; 0xaea <DIO_WritePin+0x42>
     af2:	50 e0       	ldi	r21, 0x00	; 0
     af4:	02 c0       	rjmp	.+4      	; 0xafa <DIO_WritePin+0x52>
     af6:	44 0f       	add	r20, r20
     af8:	55 1f       	adc	r21, r21
     afa:	6a 95       	dec	r22
     afc:	e2 f7       	brpl	.-8      	; 0xaf6 <DIO_WritePin+0x4e>
     afe:	80 95       	com	r24
     b00:	82 23       	and	r24, r18
     b02:	48 2b       	or	r20, r24
     b04:	48 bb       	out	0x18, r20	; 24
			break;
     b06:	27 c0       	rjmp	.+78     	; 0xb56 <DIO_WritePin+0xae>
		case PORT_C:
			BIT_WRITE(PORTC,PinNo,PinValue);
     b08:	25 b3       	in	r18, 0x15	; 21
     b0a:	81 e0       	ldi	r24, 0x01	; 1
     b0c:	90 e0       	ldi	r25, 0x00	; 0
     b0e:	06 2e       	mov	r0, r22
     b10:	02 c0       	rjmp	.+4      	; 0xb16 <DIO_WritePin+0x6e>
     b12:	88 0f       	add	r24, r24
     b14:	99 1f       	adc	r25, r25
     b16:	0a 94       	dec	r0
     b18:	e2 f7       	brpl	.-8      	; 0xb12 <DIO_WritePin+0x6a>
     b1a:	50 e0       	ldi	r21, 0x00	; 0
     b1c:	02 c0       	rjmp	.+4      	; 0xb22 <DIO_WritePin+0x7a>
     b1e:	44 0f       	add	r20, r20
     b20:	55 1f       	adc	r21, r21
     b22:	6a 95       	dec	r22
     b24:	e2 f7       	brpl	.-8      	; 0xb1e <DIO_WritePin+0x76>
     b26:	80 95       	com	r24
     b28:	82 23       	and	r24, r18
     b2a:	48 2b       	or	r20, r24
     b2c:	45 bb       	out	0x15, r20	; 21
			break;
     b2e:	13 c0       	rjmp	.+38     	; 0xb56 <DIO_WritePin+0xae>
		case PORT_D:
			BIT_WRITE(PORTD,PinNo,PinValue);
     b30:	22 b3       	in	r18, 0x12	; 18
     b32:	81 e0       	ldi	r24, 0x01	; 1
     b34:	90 e0       	ldi	r25, 0x00	; 0
     b36:	06 2e       	mov	r0, r22
     b38:	02 c0       	rjmp	.+4      	; 0xb3e <DIO_WritePin+0x96>
     b3a:	88 0f       	add	r24, r24
     b3c:	99 1f       	adc	r25, r25
     b3e:	0a 94       	dec	r0
     b40:	e2 f7       	brpl	.-8      	; 0xb3a <DIO_WritePin+0x92>
     b42:	50 e0       	ldi	r21, 0x00	; 0
     b44:	02 c0       	rjmp	.+4      	; 0xb4a <DIO_WritePin+0xa2>
     b46:	44 0f       	add	r20, r20
     b48:	55 1f       	adc	r21, r21
     b4a:	6a 95       	dec	r22
     b4c:	e2 f7       	brpl	.-8      	; 0xb46 <DIO_WritePin+0x9e>
     b4e:	80 95       	com	r24
     b50:	82 23       	and	r24, r18
     b52:	48 2b       	or	r20, r24
     b54:	42 bb       	out	0x12, r20	; 18
			break;
		default:
			break;
	}	
	return ERROR_OK;
}
     b56:	80 e0       	ldi	r24, 0x00	; 0
     b58:	08 95       	ret

00000b5a <ICU_Reset>:



static uint8_t ICU_Reset(uint8_t ICUNumber,uint8_t ICUEdgeDetector)
{
	switch(ICUNumber)
     b5a:	81 30       	cpi	r24, 0x01	; 1
     b5c:	69 f4       	brne	.+26     	; 0xb78 <ICU_Reset+0x1e>
	{
		#if  ICU1
			case ICU_1:
				REG_WRITE(TCNT1,0x0000);
     b5e:	1d bc       	out	0x2d, r1	; 45
     b60:	1c bc       	out	0x2c, r1	; 44
				BIT_WRITE(TCCR1B,ICES1,ICUEdgeDetector);
     b62:	8e b5       	in	r24, 0x2e	; 46
     b64:	90 e4       	ldi	r25, 0x40	; 64
     b66:	69 9f       	mul	r22, r25
     b68:	b0 01       	movw	r22, r0
     b6a:	11 24       	eor	r1, r1
     b6c:	8f 7b       	andi	r24, 0xBF	; 191
     b6e:	68 2b       	or	r22, r24
     b70:	6e bd       	out	0x2e, r22	; 46
				BIT_WRITE(TIFR,TOV1,BIT_HIGH);
     b72:	88 b7       	in	r24, 0x38	; 56
				BIT_WRITE(TIFR,ICF1,BIT_HIGH);
     b74:	84 62       	ori	r24, 0x24	; 36
     b76:	88 bf       	out	0x38, r24	; 56
				break;
		#endif
		default:
			break;
	}		
}
     b78:	08 95       	ret

00000b7a <ICU_CalculateTimeOn>:

static uint8_t ICU_CalculateTimeOn(uint8_t ICUNumber,ptr_double64_t TimeOnValue)
{
     b7a:	cf 93       	push	r28
     b7c:	df 93       	push	r29
	uint64_t CounterNumber;
	switch(ICUNumber)
     b7e:	81 30       	cpi	r24, 0x01	; 1
     b80:	f9 f4       	brne	.+62     	; 0xbc0 <ICU_CalculateTimeOn+0x46>
     b82:	eb 01       	movw	r28, r22
	{
		#if  ICU1
			case ICU_1:
				CounterNumber=(uint64_t)(REG_GET(ICR1)+(OverflowCounter*ICU1_MAX_COUNT));
     b84:	e6 b5       	in	r30, 0x26	; 38
     b86:	f7 b5       	in	r31, 0x27	; 39
     b88:	20 91 71 00 	lds	r18, 0x0071	; 0x800071 <OverflowCounter>
     b8c:	30 91 72 00 	lds	r19, 0x0072	; 0x800072 <OverflowCounter+0x1>
     b90:	40 91 73 00 	lds	r20, 0x0073	; 0x800073 <OverflowCounter+0x2>
     b94:	50 91 74 00 	lds	r21, 0x0074	; 0x800074 <OverflowCounter+0x3>
     b98:	af ef       	ldi	r26, 0xFF	; 255
     b9a:	bf ef       	ldi	r27, 0xFF	; 255
     b9c:	0e 94 14 0b 	call	0x1628	; 0x1628 <__muluhisi3>
     ba0:	6e 0f       	add	r22, r30
     ba2:	7f 1f       	adc	r23, r31
     ba4:	81 1d       	adc	r24, r1
     ba6:	91 1d       	adc	r25, r1
				*TimeOnValue = (CounterNumber*((double)ICU1_PRESCALER/F_CPU));
     ba8:	0e 94 be 09 	call	0x137c	; 0x137c <__floatunsisf>
     bac:	2d eb       	ldi	r18, 0xBD	; 189
     bae:	37 e3       	ldi	r19, 0x37	; 55
     bb0:	46 e8       	ldi	r20, 0x86	; 134
     bb2:	58 e3       	ldi	r21, 0x38	; 56
     bb4:	0e 94 70 0a 	call	0x14e0	; 0x14e0 <__mulsf3>
     bb8:	68 83       	st	Y, r22
     bba:	79 83       	std	Y+1, r23	; 0x01
     bbc:	8a 83       	std	Y+2, r24	; 0x02
     bbe:	9b 83       	std	Y+3, r25	; 0x03
				break;
		#endif
		default:
			break;
	}	
}
     bc0:	df 91       	pop	r29
     bc2:	cf 91       	pop	r28
     bc4:	08 95       	ret

00000bc6 <ICU_Init>:

uint8_t ICU_Init(uint8_t ICUNumber)
{
	switch(ICUNumber)
     bc6:	81 30       	cpi	r24, 0x01	; 1
     bc8:	61 f4       	brne	.+24     	; 0xbe2 <ICU_Init+0x1c>
	{
		#if  ICU1
			case ICU_1:
				DIO_SetPinDirection(ICU1_PORT,ICU1_PIN,PIN_INPUT);
     bca:	40 e0       	ldi	r20, 0x00	; 0
     bcc:	66 e0       	ldi	r22, 0x06	; 6
     bce:	83 e0       	ldi	r24, 0x03	; 3
     bd0:	0e 94 fb 04 	call	0x9f6	; 0x9f6 <DIO_SetPinDirection>
				TWO_BITS_WRITE(TCCR1A,WGM10,TWO_BITS_GET(ICU1_MODE,BIT0));
     bd4:	8f b5       	in	r24, 0x2f	; 47
     bd6:	8c 7f       	andi	r24, 0xFC	; 252
     bd8:	8f bd       	out	0x2f, r24	; 47
				TWO_BITS_WRITE(TCCR1B,WGM12,TWO_BITS_GET(ICU1_MODE,BIT2));
     bda:	8e b5       	in	r24, 0x2e	; 46
				THREE_BITS_WRITE(TCCR1B,CS10,ICU1_CLK_SOURCE);
     bdc:	80 7e       	andi	r24, 0xE0	; 224
     bde:	85 60       	ori	r24, 0x05	; 5
     be0:	8e bd       	out	0x2e, r24	; 46
				break;
		#endif
		default:
			break;
	}	
}
     be2:	08 95       	ret

00000be4 <ICU_UpdateTimeOn>:

uint8_t ICU_UpdateTimeOn(uint8_t ICUNumber,ptr_uint8_t ICUState,ptr_double64_t TimeOnValue)
{
     be4:	cf 93       	push	r28
     be6:	df 93       	push	r29
	switch(ICUNumber)
     be8:	81 30       	cpi	r24, 0x01	; 1
     bea:	09 f0       	breq	.+2      	; 0xbee <ICU_UpdateTimeOn+0xa>
     bec:	43 c0       	rjmp	.+134    	; 0xc74 <ICU_UpdateTimeOn+0x90>
     bee:	eb 01       	movw	r28, r22
	{
		#if  ICU1
			case ICU_1:
			{
				switch(*ICUState)
     bf0:	88 81       	ld	r24, Y
     bf2:	81 30       	cpi	r24, 0x01	; 1
     bf4:	59 f0       	breq	.+22     	; 0xc0c <ICU_UpdateTimeOn+0x28>
     bf6:	18 f0       	brcs	.+6      	; 0xbfe <ICU_UpdateTimeOn+0x1a>
     bf8:	82 30       	cpi	r24, 0x02	; 2
     bfa:	d1 f0       	breq	.+52     	; 0xc30 <ICU_UpdateTimeOn+0x4c>
     bfc:	3b c0       	rjmp	.+118    	; 0xc74 <ICU_UpdateTimeOn+0x90>
				{
					case START_STATE:
					{
						ICU_Reset(ICU_1,ICU1_RISING_EDGE);
     bfe:	61 e0       	ldi	r22, 0x01	; 1
     c00:	81 e0       	ldi	r24, 0x01	; 1
     c02:	0e 94 ad 05 	call	0xb5a	; 0xb5a <ICU_Reset>
						*ICUState=WAITING_RISING_EDGE_STATE;
     c06:	81 e0       	ldi	r24, 0x01	; 1
     c08:	88 83       	st	Y, r24
						break;
     c0a:	34 c0       	rjmp	.+104    	; 0xc74 <ICU_UpdateTimeOn+0x90>
					}
					case WAITING_RISING_EDGE_STATE:
					{
						if(1==(BIT_GET(TIFR,ICF1)))
     c0c:	08 b6       	in	r0, 0x38	; 56
     c0e:	05 fe       	sbrs	r0, 5
     c10:	31 c0       	rjmp	.+98     	; 0xc74 <ICU_UpdateTimeOn+0x90>
						{
							ICU_Reset(ICU_1,ICU1_FALLING_EDGE);
     c12:	60 e0       	ldi	r22, 0x00	; 0
     c14:	81 e0       	ldi	r24, 0x01	; 1
     c16:	0e 94 ad 05 	call	0xb5a	; 0xb5a <ICU_Reset>
							OverflowCounter=0;
     c1a:	10 92 71 00 	sts	0x0071, r1	; 0x800071 <OverflowCounter>
     c1e:	10 92 72 00 	sts	0x0072, r1	; 0x800072 <OverflowCounter+0x1>
     c22:	10 92 73 00 	sts	0x0073, r1	; 0x800073 <OverflowCounter+0x2>
     c26:	10 92 74 00 	sts	0x0074, r1	; 0x800074 <OverflowCounter+0x3>
							*ICUState=WAITING_FALLING_EDGE_STATE;
     c2a:	82 e0       	ldi	r24, 0x02	; 2
     c2c:	88 83       	st	Y, r24
     c2e:	22 c0       	rjmp	.+68     	; 0xc74 <ICU_UpdateTimeOn+0x90>
						}
						break;
					}
					case WAITING_FALLING_EDGE_STATE:
					{
						if(1==(BIT_GET(TIFR,TOV1)))
     c30:	08 b6       	in	r0, 0x38	; 56
     c32:	02 fe       	sbrs	r0, 2
     c34:	16 c0       	rjmp	.+44     	; 0xc62 <ICU_UpdateTimeOn+0x7e>
						{
							OverflowCounter++;
     c36:	80 91 71 00 	lds	r24, 0x0071	; 0x800071 <OverflowCounter>
     c3a:	90 91 72 00 	lds	r25, 0x0072	; 0x800072 <OverflowCounter+0x1>
     c3e:	a0 91 73 00 	lds	r26, 0x0073	; 0x800073 <OverflowCounter+0x2>
     c42:	b0 91 74 00 	lds	r27, 0x0074	; 0x800074 <OverflowCounter+0x3>
     c46:	01 96       	adiw	r24, 0x01	; 1
     c48:	a1 1d       	adc	r26, r1
     c4a:	b1 1d       	adc	r27, r1
     c4c:	80 93 71 00 	sts	0x0071, r24	; 0x800071 <OverflowCounter>
     c50:	90 93 72 00 	sts	0x0072, r25	; 0x800072 <OverflowCounter+0x1>
     c54:	a0 93 73 00 	sts	0x0073, r26	; 0x800073 <OverflowCounter+0x2>
     c58:	b0 93 74 00 	sts	0x0074, r27	; 0x800074 <OverflowCounter+0x3>
							BIT_WRITE(TIFR,TOV1,BIT_HIGH);
     c5c:	88 b7       	in	r24, 0x38	; 56
     c5e:	84 60       	ori	r24, 0x04	; 4
     c60:	88 bf       	out	0x38, r24	; 56
						}	
						
						if(1==(BIT_GET(TIFR,ICF1)))
     c62:	08 b6       	in	r0, 0x38	; 56
     c64:	05 fe       	sbrs	r0, 5
     c66:	06 c0       	rjmp	.+12     	; 0xc74 <ICU_UpdateTimeOn+0x90>
						{
							ICU_CalculateTimeOn(ICU_1,TimeOnValue);
     c68:	ba 01       	movw	r22, r20
     c6a:	81 e0       	ldi	r24, 0x01	; 1
     c6c:	0e 94 bd 05 	call	0xb7a	; 0xb7a <ICU_CalculateTimeOn>
							*ICUState=END_STATE;
     c70:	83 e0       	ldi	r24, 0x03	; 3
     c72:	88 83       	st	Y, r24
			}
		#endif
		default:
			break;
	}		
     c74:	df 91       	pop	r29
     c76:	cf 91       	pop	r28
     c78:	08 95       	ret

00000c7a <GetFreqPrescaleRatio>:
   /* clear the timer clock */
   *ptr_TimerControl &= ~(CLK_BITS);
   
   /* return success message. */
   return TIMER_E_SUCCESS;
}
     c7a:	82 30       	cpi	r24, 0x02	; 2
     c7c:	08 f0       	brcs	.+2      	; 0xc80 <GetFreqPrescaleRatio+0x6>
     c7e:	49 c0       	rjmp	.+146    	; 0xd12 <GetFreqPrescaleRatio+0x98>
     c80:	90 e0       	ldi	r25, 0x00	; 0
     c82:	fc 01       	movw	r30, r24
     c84:	ee 0f       	add	r30, r30
     c86:	ff 1f       	adc	r31, r31
     c88:	8e 0f       	add	r24, r30
     c8a:	9f 1f       	adc	r25, r31
     c8c:	fc 01       	movw	r30, r24
     c8e:	ed 59       	subi	r30, 0x9D	; 157
     c90:	ff 4f       	sbci	r31, 0xFF	; 255
     c92:	82 81       	ldd	r24, Z+2	; 0x02
     c94:	83 30       	cpi	r24, 0x03	; 3
     c96:	f9 f0       	breq	.+62     	; 0xcd6 <GetFreqPrescaleRatio+0x5c>
     c98:	28 f4       	brcc	.+10     	; 0xca4 <GetFreqPrescaleRatio+0x2a>
     c9a:	81 30       	cpi	r24, 0x01	; 1
     c9c:	41 f0       	breq	.+16     	; 0xcae <GetFreqPrescaleRatio+0x34>
     c9e:	82 30       	cpi	r24, 0x02	; 2
     ca0:	81 f0       	breq	.+32     	; 0xcc2 <GetFreqPrescaleRatio+0x48>
     ca2:	96 c0       	rjmp	.+300    	; 0xdd0 <GetFreqPrescaleRatio+0x156>
     ca4:	84 30       	cpi	r24, 0x04	; 4
     ca6:	09 f1       	breq	.+66     	; 0xcea <GetFreqPrescaleRatio+0x70>
     ca8:	85 30       	cpi	r24, 0x05	; 5
     caa:	49 f1       	breq	.+82     	; 0xcfe <GetFreqPrescaleRatio+0x84>
     cac:	91 c0       	rjmp	.+290    	; 0xdd0 <GetFreqPrescaleRatio+0x156>
     cae:	80 e0       	ldi	r24, 0x00	; 0
     cb0:	90 e0       	ldi	r25, 0x00	; 0
     cb2:	a0 e8       	ldi	r26, 0x80	; 128
     cb4:	bd e3       	ldi	r27, 0x3D	; 61
     cb6:	fb 01       	movw	r30, r22
     cb8:	80 83       	st	Z, r24
     cba:	91 83       	std	Z+1, r25	; 0x01
     cbc:	a2 83       	std	Z+2, r26	; 0x02
     cbe:	b3 83       	std	Z+3, r27	; 0x03
     cc0:	86 c0       	rjmp	.+268    	; 0xdce <GetFreqPrescaleRatio+0x154>
     cc2:	80 e0       	ldi	r24, 0x00	; 0
     cc4:	90 e0       	ldi	r25, 0x00	; 0
     cc6:	a0 e0       	ldi	r26, 0x00	; 0
     cc8:	bf e3       	ldi	r27, 0x3F	; 63
     cca:	fb 01       	movw	r30, r22
     ccc:	80 83       	st	Z, r24
     cce:	91 83       	std	Z+1, r25	; 0x01
     cd0:	a2 83       	std	Z+2, r26	; 0x02
     cd2:	b3 83       	std	Z+3, r27	; 0x03
     cd4:	7c c0       	rjmp	.+248    	; 0xdce <GetFreqPrescaleRatio+0x154>
     cd6:	80 e0       	ldi	r24, 0x00	; 0
     cd8:	90 e0       	ldi	r25, 0x00	; 0
     cda:	a0 e8       	ldi	r26, 0x80	; 128
     cdc:	b0 e4       	ldi	r27, 0x40	; 64
     cde:	fb 01       	movw	r30, r22
     ce0:	80 83       	st	Z, r24
     ce2:	91 83       	std	Z+1, r25	; 0x01
     ce4:	a2 83       	std	Z+2, r26	; 0x02
     ce6:	b3 83       	std	Z+3, r27	; 0x03
     ce8:	72 c0       	rjmp	.+228    	; 0xdce <GetFreqPrescaleRatio+0x154>
     cea:	80 e0       	ldi	r24, 0x00	; 0
     cec:	90 e0       	ldi	r25, 0x00	; 0
     cee:	a0 e8       	ldi	r26, 0x80	; 128
     cf0:	b1 e4       	ldi	r27, 0x41	; 65
     cf2:	fb 01       	movw	r30, r22
     cf4:	80 83       	st	Z, r24
     cf6:	91 83       	std	Z+1, r25	; 0x01
     cf8:	a2 83       	std	Z+2, r26	; 0x02
     cfa:	b3 83       	std	Z+3, r27	; 0x03
     cfc:	68 c0       	rjmp	.+208    	; 0xdce <GetFreqPrescaleRatio+0x154>
     cfe:	80 e0       	ldi	r24, 0x00	; 0
     d00:	90 e0       	ldi	r25, 0x00	; 0
     d02:	a0 e8       	ldi	r26, 0x80	; 128
     d04:	b2 e4       	ldi	r27, 0x42	; 66
     d06:	fb 01       	movw	r30, r22
     d08:	80 83       	st	Z, r24
     d0a:	91 83       	std	Z+1, r25	; 0x01
     d0c:	a2 83       	std	Z+2, r26	; 0x02
     d0e:	b3 83       	std	Z+3, r27	; 0x03
     d10:	5e c0       	rjmp	.+188    	; 0xdce <GetFreqPrescaleRatio+0x154>
     d12:	82 30       	cpi	r24, 0x02	; 2
     d14:	09 f0       	breq	.+2      	; 0xd18 <GetFreqPrescaleRatio+0x9e>
     d16:	5b c0       	rjmp	.+182    	; 0xdce <GetFreqPrescaleRatio+0x154>
     d18:	90 e0       	ldi	r25, 0x00	; 0
     d1a:	fc 01       	movw	r30, r24
     d1c:	ee 0f       	add	r30, r30
     d1e:	ff 1f       	adc	r31, r31
     d20:	8e 0f       	add	r24, r30
     d22:	9f 1f       	adc	r25, r31
     d24:	fc 01       	movw	r30, r24
     d26:	ed 59       	subi	r30, 0x9D	; 157
     d28:	ff 4f       	sbci	r31, 0xFF	; 255
     d2a:	e2 81       	ldd	r30, Z+2	; 0x02
     d2c:	8e 2f       	mov	r24, r30
     d2e:	90 e0       	ldi	r25, 0x00	; 0
     d30:	fc 01       	movw	r30, r24
     d32:	31 97       	sbiw	r30, 0x01	; 1
     d34:	e7 30       	cpi	r30, 0x07	; 7
     d36:	f1 05       	cpc	r31, r1
     d38:	08 f0       	brcs	.+2      	; 0xd3c <GetFreqPrescaleRatio+0xc2>
     d3a:	4a c0       	rjmp	.+148    	; 0xdd0 <GetFreqPrescaleRatio+0x156>
     d3c:	e6 5d       	subi	r30, 0xD6	; 214
     d3e:	ff 4f       	sbci	r31, 0xFF	; 255
     d40:	0c 94 ff 0a 	jmp	0x15fe	; 0x15fe <__tablejump2__>
     d44:	80 e0       	ldi	r24, 0x00	; 0
     d46:	90 e0       	ldi	r25, 0x00	; 0
     d48:	a0 e8       	ldi	r26, 0x80	; 128
     d4a:	bd e3       	ldi	r27, 0x3D	; 61
     d4c:	fb 01       	movw	r30, r22
     d4e:	80 83       	st	Z, r24
     d50:	91 83       	std	Z+1, r25	; 0x01
     d52:	a2 83       	std	Z+2, r26	; 0x02
     d54:	b3 83       	std	Z+3, r27	; 0x03
     d56:	3b c0       	rjmp	.+118    	; 0xdce <GetFreqPrescaleRatio+0x154>
     d58:	80 e0       	ldi	r24, 0x00	; 0
     d5a:	90 e0       	ldi	r25, 0x00	; 0
     d5c:	a0 e0       	ldi	r26, 0x00	; 0
     d5e:	bf e3       	ldi	r27, 0x3F	; 63
     d60:	fb 01       	movw	r30, r22
     d62:	80 83       	st	Z, r24
     d64:	91 83       	std	Z+1, r25	; 0x01
     d66:	a2 83       	std	Z+2, r26	; 0x02
     d68:	b3 83       	std	Z+3, r27	; 0x03
     d6a:	31 c0       	rjmp	.+98     	; 0xdce <GetFreqPrescaleRatio+0x154>
     d6c:	80 e0       	ldi	r24, 0x00	; 0
     d6e:	90 e0       	ldi	r25, 0x00	; 0
     d70:	a0 e0       	ldi	r26, 0x00	; 0
     d72:	b0 e4       	ldi	r27, 0x40	; 64
     d74:	fb 01       	movw	r30, r22
     d76:	80 83       	st	Z, r24
     d78:	91 83       	std	Z+1, r25	; 0x01
     d7a:	a2 83       	std	Z+2, r26	; 0x02
     d7c:	b3 83       	std	Z+3, r27	; 0x03
     d7e:	27 c0       	rjmp	.+78     	; 0xdce <GetFreqPrescaleRatio+0x154>
     d80:	80 e0       	ldi	r24, 0x00	; 0
     d82:	90 e0       	ldi	r25, 0x00	; 0
     d84:	a0 e8       	ldi	r26, 0x80	; 128
     d86:	b0 e4       	ldi	r27, 0x40	; 64
     d88:	fb 01       	movw	r30, r22
     d8a:	80 83       	st	Z, r24
     d8c:	91 83       	std	Z+1, r25	; 0x01
     d8e:	a2 83       	std	Z+2, r26	; 0x02
     d90:	b3 83       	std	Z+3, r27	; 0x03
     d92:	1d c0       	rjmp	.+58     	; 0xdce <GetFreqPrescaleRatio+0x154>
     d94:	80 e0       	ldi	r24, 0x00	; 0
     d96:	90 e0       	ldi	r25, 0x00	; 0
     d98:	a0 e0       	ldi	r26, 0x00	; 0
     d9a:	b1 e4       	ldi	r27, 0x41	; 65
     d9c:	fb 01       	movw	r30, r22
     d9e:	80 83       	st	Z, r24
     da0:	91 83       	std	Z+1, r25	; 0x01
     da2:	a2 83       	std	Z+2, r26	; 0x02
     da4:	b3 83       	std	Z+3, r27	; 0x03
     da6:	13 c0       	rjmp	.+38     	; 0xdce <GetFreqPrescaleRatio+0x154>
     da8:	80 e0       	ldi	r24, 0x00	; 0
     daa:	90 e0       	ldi	r25, 0x00	; 0
     dac:	a0 e8       	ldi	r26, 0x80	; 128
     dae:	b1 e4       	ldi	r27, 0x41	; 65
     db0:	fb 01       	movw	r30, r22
     db2:	80 83       	st	Z, r24
     db4:	91 83       	std	Z+1, r25	; 0x01
     db6:	a2 83       	std	Z+2, r26	; 0x02
     db8:	b3 83       	std	Z+3, r27	; 0x03
     dba:	09 c0       	rjmp	.+18     	; 0xdce <GetFreqPrescaleRatio+0x154>
     dbc:	80 e0       	ldi	r24, 0x00	; 0
     dbe:	90 e0       	ldi	r25, 0x00	; 0
     dc0:	a0 e8       	ldi	r26, 0x80	; 128
     dc2:	b2 e4       	ldi	r27, 0x42	; 66
     dc4:	fb 01       	movw	r30, r22
     dc6:	80 83       	st	Z, r24
     dc8:	91 83       	std	Z+1, r25	; 0x01
     dca:	a2 83       	std	Z+2, r26	; 0x02
     dcc:	b3 83       	std	Z+3, r27	; 0x03
     dce:	08 95       	ret
     dd0:	8c ef       	ldi	r24, 0xFC	; 252
     dd2:	08 95       	ret

00000dd4 <TIM_Start>:
     dd4:	81 30       	cpi	r24, 0x01	; 1
     dd6:	71 f0       	breq	.+28     	; 0xdf4 <TIM_Start+0x20>
     dd8:	18 f0       	brcs	.+6      	; 0xde0 <TIM_Start+0xc>
     dda:	82 30       	cpi	r24, 0x02	; 2
     ddc:	31 f0       	breq	.+12     	; 0xdea <TIM_Start+0x16>
     dde:	1e c0       	rjmp	.+60     	; 0xe1c <TIM_Start+0x48>
     de0:	e2 e5       	ldi	r30, 0x52	; 82
     de2:	f0 e0       	ldi	r31, 0x00	; 0
     de4:	a3 e5       	ldi	r26, 0x53	; 83
     de6:	b0 e0       	ldi	r27, 0x00	; 0
     de8:	09 c0       	rjmp	.+18     	; 0xdfc <TIM_Start+0x28>
     dea:	e4 e4       	ldi	r30, 0x44	; 68
     dec:	f0 e0       	ldi	r31, 0x00	; 0
     dee:	a5 e4       	ldi	r26, 0x45	; 69
     df0:	b0 e0       	ldi	r27, 0x00	; 0
     df2:	04 c0       	rjmp	.+8      	; 0xdfc <TIM_Start+0x28>
     df4:	ec e4       	ldi	r30, 0x4C	; 76
     df6:	f0 e0       	ldi	r31, 0x00	; 0
     df8:	ae e4       	ldi	r26, 0x4E	; 78
     dfa:	b0 e0       	ldi	r27, 0x00	; 0
     dfc:	60 83       	st	Z, r22
     dfe:	2c 91       	ld	r18, X
     e00:	90 e0       	ldi	r25, 0x00	; 0
     e02:	fc 01       	movw	r30, r24
     e04:	ee 0f       	add	r30, r30
     e06:	ff 1f       	adc	r31, r31
     e08:	8e 0f       	add	r24, r30
     e0a:	9f 1f       	adc	r25, r31
     e0c:	fc 01       	movw	r30, r24
     e0e:	ed 59       	subi	r30, 0x9D	; 157
     e10:	ff 4f       	sbci	r31, 0xFF	; 255
     e12:	82 81       	ldd	r24, Z+2	; 0x02
     e14:	82 2b       	or	r24, r18
     e16:	8c 93       	st	X, r24
     e18:	80 e0       	ldi	r24, 0x00	; 0
     e1a:	08 95       	ret
     e1c:	8e ef       	ldi	r24, 0xFE	; 254
     e1e:	08 95       	ret

00000e20 <TIM_GetStatus>:
*
* @return function error state.
*/
TIMER_ERROR_state_t TIM_GetStatus(TIM_CH_t TIM_channel, uint8_t* FlagStatus)
{
   if(NULL_PTR == FlagStatus)
     e20:	61 15       	cp	r22, r1
     e22:	71 05       	cpc	r23, r1
     e24:	09 f4       	brne	.+2      	; 0xe28 <TIM_GetStatus+0x8>
     e26:	7b c0       	rjmp	.+246    	; 0xf1e <TIM_GetStatus+0xfe>
   {
      return TIMER_E_NULL_PTR;
   }
   
   /* sets the registers pointers according to the required timer. */
   switch(TIM_channel)
     e28:	81 30       	cpi	r24, 0x01	; 1
     e2a:	41 f1       	breq	.+80     	; 0xe7c <TIM_GetStatus+0x5c>
     e2c:	20 f0       	brcs	.+8      	; 0xe36 <TIM_GetStatus+0x16>
     e2e:	82 30       	cpi	r24, 0x02	; 2
     e30:	09 f4       	brne	.+2      	; 0xe34 <TIM_GetStatus+0x14>
     e32:	53 c0       	rjmp	.+166    	; 0xeda <TIM_GetStatus+0xba>
     e34:	76 c0       	rjmp	.+236    	; 0xf22 <TIM_GetStatus+0x102>
   {
      case TIMER_0:
         if(gastr_Timer_Config[TIM_channel].u8_mode == NORMAL_MODE)
     e36:	90 e0       	ldi	r25, 0x00	; 0
     e38:	fc 01       	movw	r30, r24
     e3a:	ee 0f       	add	r30, r30
     e3c:	ff 1f       	adc	r31, r31
     e3e:	8e 0f       	add	r24, r30
     e40:	9f 1f       	adc	r25, r31
     e42:	fc 01       	movw	r30, r24
     e44:	ed 59       	subi	r30, 0x9D	; 157
     e46:	ff 4f       	sbci	r31, 0xFF	; 255
     e48:	80 81       	ld	r24, Z
     e4a:	81 11       	cpse	r24, r1
     e4c:	09 c0       	rjmp	.+18     	; 0xe60 <TIM_GetStatus+0x40>
         {
            if( TIMER_INT_FLAG & TIMER_0_OVERFLOW_FLAG )
     e4e:	08 b6       	in	r0, 0x38	; 56
     e50:	00 fe       	sbrs	r0, 0
     e52:	69 c0       	rjmp	.+210    	; 0xf26 <TIM_GetStatus+0x106>
            {
               *FlagStatus = TIMER_OVERFLOW_FLAG;
     e54:	fb 01       	movw	r30, r22
     e56:	10 82       	st	Z, r1
               TIMER_INT_FLAG |= TIMER_0_OVERFLOW_FLAG;
     e58:	98 b7       	in	r25, 0x38	; 56
     e5a:	91 60       	ori	r25, 0x01	; 1
     e5c:	98 bf       	out	0x38, r25	; 56
     e5e:	08 95       	ret
            else
            {
               return TIMER_E_PENDING;
            }
         }
         else if(gastr_Timer_Config[TIM_channel].u8_mode == COMPARE_MATCH_MODE)
     e60:	88 30       	cpi	r24, 0x08	; 8
     e62:	09 f0       	breq	.+2      	; 0xe66 <TIM_GetStatus+0x46>
     e64:	62 c0       	rjmp	.+196    	; 0xf2a <TIM_GetStatus+0x10a>
         {
            if(TIMER_INT_FLAG & TIMER_0_COMPARE_FLAG)
     e66:	08 b6       	in	r0, 0x38	; 56
     e68:	01 fe       	sbrs	r0, 1
     e6a:	61 c0       	rjmp	.+194    	; 0xf2e <TIM_GetStatus+0x10e>
            {
               *FlagStatus = TIMER_COMPARE_FLAG;
     e6c:	81 e0       	ldi	r24, 0x01	; 1
     e6e:	fb 01       	movw	r30, r22
     e70:	80 83       	st	Z, r24
               TIMER_INT_FLAG |= TIMER_0_COMPARE_FLAG;
     e72:	88 b7       	in	r24, 0x38	; 56
     e74:	82 60       	ori	r24, 0x02	; 2
     e76:	88 bf       	out	0x38, r24	; 56
      default:
         return TIMER_E_INVALID_CH_NUM;
   }
   
   /* return success message. */
   return TIMER_E_SUCCESS;
     e78:	80 e0       	ldi	r24, 0x00	; 0
     e7a:	08 95       	ret
               return TIMER_E_PENDING;
            }
         }
         break;
      case TIMER_1:
         if(gastr_Timer_Config[TIM_channel].u8_mode == NORMAL_MODE)
     e7c:	90 e0       	ldi	r25, 0x00	; 0
     e7e:	fc 01       	movw	r30, r24
     e80:	ee 0f       	add	r30, r30
     e82:	ff 1f       	adc	r31, r31
     e84:	8e 0f       	add	r24, r30
     e86:	9f 1f       	adc	r25, r31
     e88:	fc 01       	movw	r30, r24
     e8a:	ed 59       	subi	r30, 0x9D	; 157
     e8c:	ff 4f       	sbci	r31, 0xFF	; 255
     e8e:	80 81       	ld	r24, Z
     e90:	81 11       	cpse	r24, r1
     e92:	09 c0       	rjmp	.+18     	; 0xea6 <TIM_GetStatus+0x86>
         {
            if( TIMER_INT_FLAG & TIMER_1_OVERFLOW_FLAG )
     e94:	08 b6       	in	r0, 0x38	; 56
     e96:	02 fe       	sbrs	r0, 2
     e98:	4c c0       	rjmp	.+152    	; 0xf32 <TIM_GetStatus+0x112>
            {
               *FlagStatus = TIMER_OVERFLOW_FLAG;
     e9a:	fb 01       	movw	r30, r22
     e9c:	10 82       	st	Z, r1
               TIMER_INT_FLAG |= TIMER_1_OVERFLOW_FLAG;
     e9e:	98 b7       	in	r25, 0x38	; 56
     ea0:	94 60       	ori	r25, 0x04	; 4
     ea2:	98 bf       	out	0x38, r25	; 56
     ea4:	08 95       	ret
            else
            {
               return TIMER_E_PENDING;
            }
         }
         else if(gastr_Timer_Config[TIM_channel].u8_mode == COMPARE_MATCH_MODE)
     ea6:	88 30       	cpi	r24, 0x08	; 8
     ea8:	09 f0       	breq	.+2      	; 0xeac <TIM_GetStatus+0x8c>
     eaa:	45 c0       	rjmp	.+138    	; 0xf36 <TIM_GetStatus+0x116>
         {
            if(TIMER_INT_FLAG & TIMER_1A_COMPARE_FLAG)
     eac:	98 b7       	in	r25, 0x38	; 56
     eae:	89 2f       	mov	r24, r25
     eb0:	80 71       	andi	r24, 0x10	; 16
     eb2:	94 ff       	sbrs	r25, 4
     eb4:	08 c0       	rjmp	.+16     	; 0xec6 <TIM_GetStatus+0xa6>
            {
               *FlagStatus = TIMER_COMPARE_FLAG;
     eb6:	81 e0       	ldi	r24, 0x01	; 1
     eb8:	fb 01       	movw	r30, r22
     eba:	80 83       	st	Z, r24
               TIMER_INT_FLAG |= TIMER_1A_COMPARE_FLAG;
     ebc:	88 b7       	in	r24, 0x38	; 56
     ebe:	80 61       	ori	r24, 0x10	; 16
     ec0:	88 bf       	out	0x38, r24	; 56
      default:
         return TIMER_E_INVALID_CH_NUM;
   }
   
   /* return success message. */
   return TIMER_E_SUCCESS;
     ec2:	80 e0       	ldi	r24, 0x00	; 0
     ec4:	08 95       	ret
            if(TIMER_INT_FLAG & TIMER_1A_COMPARE_FLAG)
            {
               *FlagStatus = TIMER_COMPARE_FLAG;
               TIMER_INT_FLAG |= TIMER_1A_COMPARE_FLAG;
            }
            else if(TIMER_INT_FLAG & TIMER_1B_COMPARE_FLAG)
     ec6:	08 b6       	in	r0, 0x38	; 56
     ec8:	03 fe       	sbrs	r0, 3
     eca:	37 c0       	rjmp	.+110    	; 0xf3a <TIM_GetStatus+0x11a>
            {
               *FlagStatus = TIMER_COMPARE_FLAG;
     ecc:	91 e0       	ldi	r25, 0x01	; 1
     ece:	fb 01       	movw	r30, r22
     ed0:	90 83       	st	Z, r25
               TIMER_INT_FLAG |= TIMER_1B_COMPARE_FLAG;
     ed2:	98 b7       	in	r25, 0x38	; 56
     ed4:	98 60       	ori	r25, 0x08	; 8
     ed6:	98 bf       	out	0x38, r25	; 56
     ed8:	08 95       	ret
               return TIMER_E_PENDING;
            }
         }
         break;
      case TIMER_2:
         if(gastr_Timer_Config[TIM_channel].u8_mode == NORMAL_MODE)
     eda:	90 e0       	ldi	r25, 0x00	; 0
     edc:	fc 01       	movw	r30, r24
     ede:	ee 0f       	add	r30, r30
     ee0:	ff 1f       	adc	r31, r31
     ee2:	8e 0f       	add	r24, r30
     ee4:	9f 1f       	adc	r25, r31
     ee6:	fc 01       	movw	r30, r24
     ee8:	ed 59       	subi	r30, 0x9D	; 157
     eea:	ff 4f       	sbci	r31, 0xFF	; 255
     eec:	80 81       	ld	r24, Z
     eee:	81 11       	cpse	r24, r1
     ef0:	09 c0       	rjmp	.+18     	; 0xf04 <TIM_GetStatus+0xe4>
         {
            if( TIMER_INT_FLAG & TIMER_2_OVERFLOW_FLAG )
     ef2:	08 b6       	in	r0, 0x38	; 56
     ef4:	06 fe       	sbrs	r0, 6
     ef6:	23 c0       	rjmp	.+70     	; 0xf3e <TIM_GetStatus+0x11e>
            {
               *FlagStatus = TIMER_OVERFLOW_FLAG;
     ef8:	fb 01       	movw	r30, r22
     efa:	10 82       	st	Z, r1
               TIMER_INT_FLAG |= TIMER_2_OVERFLOW_FLAG;
     efc:	98 b7       	in	r25, 0x38	; 56
     efe:	90 64       	ori	r25, 0x40	; 64
     f00:	98 bf       	out	0x38, r25	; 56
     f02:	08 95       	ret
            else
            {
               return TIMER_E_PENDING;
            }
         }
         else if(gastr_Timer_Config[TIM_channel].u8_mode == COMPARE_MATCH_MODE)
     f04:	88 30       	cpi	r24, 0x08	; 8
     f06:	e9 f4       	brne	.+58     	; 0xf42 <TIM_GetStatus+0x122>
         {
            if(TIMER_INT_FLAG & TIMER_2_COMPARE_FLAG)
     f08:	08 b6       	in	r0, 0x38	; 56
     f0a:	07 fe       	sbrs	r0, 7
     f0c:	1c c0       	rjmp	.+56     	; 0xf46 <TIM_GetStatus+0x126>
            {
               *FlagStatus = TIMER_COMPARE_FLAG;
     f0e:	81 e0       	ldi	r24, 0x01	; 1
     f10:	fb 01       	movw	r30, r22
     f12:	80 83       	st	Z, r24
               TIMER_INT_FLAG |= TIMER_2_COMPARE_FLAG;
     f14:	88 b7       	in	r24, 0x38	; 56
     f16:	80 68       	ori	r24, 0x80	; 128
     f18:	88 bf       	out	0x38, r24	; 56
      default:
         return TIMER_E_INVALID_CH_NUM;
   }
   
   /* return success message. */
   return TIMER_E_SUCCESS;
     f1a:	80 e0       	ldi	r24, 0x00	; 0
     f1c:	08 95       	ret
*/
TIMER_ERROR_state_t TIM_GetStatus(TIM_CH_t TIM_channel, uint8_t* FlagStatus)
{
   if(NULL_PTR == FlagStatus)
   {
      return TIMER_E_NULL_PTR;
     f1e:	8f ef       	ldi	r24, 0xFF	; 255
     f20:	08 95       	ret
            }
         }
         
         break;
      default:
         return TIMER_E_INVALID_CH_NUM;
     f22:	8e ef       	ldi	r24, 0xFE	; 254
     f24:	08 95       	ret
               *FlagStatus = TIMER_OVERFLOW_FLAG;
               TIMER_INT_FLAG |= TIMER_0_OVERFLOW_FLAG;
            }
            else
            {
               return TIMER_E_PENDING;
     f26:	8d ef       	ldi	r24, 0xFD	; 253
     f28:	08 95       	ret
      default:
         return TIMER_E_INVALID_CH_NUM;
   }
   
   /* return success message. */
   return TIMER_E_SUCCESS;
     f2a:	80 e0       	ldi	r24, 0x00	; 0
     f2c:	08 95       	ret
               *FlagStatus = TIMER_COMPARE_FLAG;
               TIMER_INT_FLAG |= TIMER_0_COMPARE_FLAG;
            }
            else
            {
               return TIMER_E_PENDING;
     f2e:	8d ef       	ldi	r24, 0xFD	; 253
     f30:	08 95       	ret
               *FlagStatus = TIMER_OVERFLOW_FLAG;
               TIMER_INT_FLAG |= TIMER_1_OVERFLOW_FLAG;
            }
            else
            {
               return TIMER_E_PENDING;
     f32:	8d ef       	ldi	r24, 0xFD	; 253
     f34:	08 95       	ret
      default:
         return TIMER_E_INVALID_CH_NUM;
   }
   
   /* return success message. */
   return TIMER_E_SUCCESS;
     f36:	80 e0       	ldi	r24, 0x00	; 0
     f38:	08 95       	ret
               *FlagStatus = TIMER_COMPARE_FLAG;
               TIMER_INT_FLAG |= TIMER_1B_COMPARE_FLAG;
            }
            else
            {
               return TIMER_E_PENDING;
     f3a:	8d ef       	ldi	r24, 0xFD	; 253
     f3c:	08 95       	ret
               *FlagStatus = TIMER_OVERFLOW_FLAG;
               TIMER_INT_FLAG |= TIMER_2_OVERFLOW_FLAG;
            }
            else
            {
               return TIMER_E_PENDING;
     f3e:	8d ef       	ldi	r24, 0xFD	; 253
     f40:	08 95       	ret
      default:
         return TIMER_E_INVALID_CH_NUM;
   }
   
   /* return success message. */
   return TIMER_E_SUCCESS;
     f42:	80 e0       	ldi	r24, 0x00	; 0
     f44:	08 95       	ret
               *FlagStatus = TIMER_COMPARE_FLAG;
               TIMER_INT_FLAG |= TIMER_2_COMPARE_FLAG;
            }
            else
            {
               return TIMER_E_PENDING;
     f46:	8d ef       	ldi	r24, 0xFD	; 253
         return TIMER_E_INVALID_CH_NUM;
   }
   
   /* return success message. */
   return TIMER_E_SUCCESS;
}
     f48:	08 95       	ret

00000f4a <TIM_DelayUs>:
* @param [out] TIM_Delay   -  Time to delay in microseconds.
*
* @return function error state.
*/
TIMER_ERROR_state_t TIM_DelayUs(TIM_CH_t TIM_channel, TIM_Delay_t TIM_Delay)
{
     f4a:	8f 92       	push	r8
     f4c:	9f 92       	push	r9
     f4e:	af 92       	push	r10
     f50:	bf 92       	push	r11
     f52:	cf 92       	push	r12
     f54:	df 92       	push	r13
     f56:	ef 92       	push	r14
     f58:	ff 92       	push	r15
     f5a:	1f 93       	push	r17
     f5c:	cf 93       	push	r28
     f5e:	df 93       	push	r29
     f60:	00 d0       	rcall	.+0      	; 0xf62 <TIM_DelayUs+0x18>
     f62:	00 d0       	rcall	.+0      	; 0xf64 <TIM_DelayUs+0x1a>
     f64:	cd b7       	in	r28, 0x3d	; 61
     f66:	de b7       	in	r29, 0x3e	; 62
     f68:	18 2f       	mov	r17, r24
     f6a:	6a 01       	movw	r12, r20
     f6c:	7b 01       	movw	r14, r22
   /* Make sure not invalid timer channel */
   if(TIM_channel >= INVALID_TIMER_CH)
     f6e:	83 30       	cpi	r24, 0x03	; 3
     f70:	08 f0       	brcs	.+2      	; 0xf74 <TIM_DelayUs+0x2a>
     f72:	8a c0       	rjmp	.+276    	; 0x1088 <TIM_DelayUs+0x13e>
   static uint8_t u8_Remindar = 0;
   static Enu_DelayStateMachine Enu_State = Ready;
   TIMER_ERROR_state_t Timer_state;
   
   /* Ready state */
   if(Ready == Enu_State)
     f74:	80 91 82 00 	lds	r24, 0x0082	; 0x800082 <Enu_State.1685>
     f78:	81 11       	cpse	r24, r1
     f7a:	48 c0       	rjmp	.+144    	; 0x100c <TIM_DelayUs+0xc2>
   {
      /* Calculate needed frequency Ratio */
      float32_t f32_FreqRatio;
      Timer_state = GetFreqPrescaleRatio(TIM_channel, &f32_FreqRatio);
     f7c:	be 01       	movw	r22, r28
     f7e:	6f 5f       	subi	r22, 0xFF	; 255
     f80:	7f 4f       	sbci	r23, 0xFF	; 255
     f82:	81 2f       	mov	r24, r17
     f84:	0e 94 3d 06 	call	0xc7a	; 0xc7a <GetFreqPrescaleRatio>
      if(TIMER_E_UNSUPPORTED_PRESCALE == Timer_state)
     f88:	8c 3f       	cpi	r24, 0xFC	; 252
     f8a:	f1 f1       	breq	.+124    	; 0x1008 <TIM_DelayUs+0xbe>
      {
         return TIMER_E_UNSUPPORTED_PRESCALE;
      }
      
      if(f32_FreqRatio != 0)
     f8c:	89 80       	ldd	r8, Y+1	; 0x01
     f8e:	9a 80       	ldd	r9, Y+2	; 0x02
     f90:	ab 80       	ldd	r10, Y+3	; 0x03
     f92:	bc 80       	ldd	r11, Y+4	; 0x04
     f94:	20 e0       	ldi	r18, 0x00	; 0
     f96:	30 e0       	ldi	r19, 0x00	; 0
     f98:	a9 01       	movw	r20, r18
     f9a:	c5 01       	movw	r24, r10
     f9c:	b4 01       	movw	r22, r8
     f9e:	0e 94 18 09 	call	0x1230	; 0x1230 <__cmpsf2>
     fa2:	88 23       	and	r24, r24
     fa4:	61 f0       	breq	.+24     	; 0xfbe <TIM_DelayUs+0x74>
      {
         TIM_Delay /= f32_FreqRatio;
     fa6:	c7 01       	movw	r24, r14
     fa8:	b6 01       	movw	r22, r12
     faa:	0e 94 be 09 	call	0x137c	; 0x137c <__floatunsisf>
     fae:	a5 01       	movw	r20, r10
     fb0:	94 01       	movw	r18, r8
     fb2:	0e 94 1d 09 	call	0x123a	; 0x123a <__divsf3>
     fb6:	0e 94 8f 09 	call	0x131e	; 0x131e <__fixunssfsi>
     fba:	6b 01       	movw	r12, r22
     fbc:	7c 01       	movw	r14, r24
      }
      
      /* Calculate how many overflows needed */
      u32_Overflows = TIM_Delay / 256;
     fbe:	bb 27       	eor	r27, r27
     fc0:	af 2d       	mov	r26, r15
     fc2:	9e 2d       	mov	r25, r14
     fc4:	8d 2d       	mov	r24, r13
     fc6:	80 93 7e 00 	sts	0x007E, r24	; 0x80007e <u32_Overflows.1682>
     fca:	90 93 7f 00 	sts	0x007F, r25	; 0x80007f <u32_Overflows.1682+0x1>
     fce:	a0 93 80 00 	sts	0x0080, r26	; 0x800080 <u32_Overflows.1682+0x2>
     fd2:	b0 93 81 00 	sts	0x0081, r27	; 0x800081 <u32_Overflows.1682+0x3>
      u8_Remindar = TIM_Delay % 256;
     fd6:	c0 92 7d 00 	sts	0x007D, r12	; 0x80007d <u8_Remindar.1684>
      
      if(u32_Overflows == 0)
     fda:	89 2b       	or	r24, r25
     fdc:	8a 2b       	or	r24, r26
     fde:	8b 2b       	or	r24, r27
     fe0:	49 f4       	brne	.+18     	; 0xff4 <TIM_DelayUs+0xaa>
      {
         u8_OverflowsComplete = HIGH;
     fe2:	81 e0       	ldi	r24, 0x01	; 1
     fe4:	80 93 7c 00 	sts	0x007C, r24	; 0x80007c <u8_OverflowsComplete.1683>
         TIM_Start(TIM_channel, u8_Remindar);
     fe8:	6c 2d       	mov	r22, r12
     fea:	70 e0       	ldi	r23, 0x00	; 0
     fec:	81 2f       	mov	r24, r17
     fee:	0e 94 ea 06 	call	0xdd4	; 0xdd4 <TIM_Start>
     ff2:	05 c0       	rjmp	.+10     	; 0xffe <TIM_DelayUs+0xb4>
      }
      else
      {
         /* Start timer with full register */
         TIM_Start(TIM_channel, 255);
     ff4:	6f ef       	ldi	r22, 0xFF	; 255
     ff6:	70 e0       	ldi	r23, 0x00	; 0
     ff8:	81 2f       	mov	r24, r17
     ffa:	0e 94 ea 06 	call	0xdd4	; 0xdd4 <TIM_Start>
      }     
      /* Change to timer pending state */ 
      Enu_State = Pending;
     ffe:	81 e0       	ldi	r24, 0x01	; 1
    1000:	80 93 82 00 	sts	0x0082, r24	; 0x800082 <Enu_State.1685>
      return TIMER_E_PENDING;
    1004:	8d ef       	ldi	r24, 0xFD	; 253
    1006:	41 c0       	rjmp	.+130    	; 0x108a <TIM_DelayUs+0x140>
      /* Calculate needed frequency Ratio */
      float32_t f32_FreqRatio;
      Timer_state = GetFreqPrescaleRatio(TIM_channel, &f32_FreqRatio);
      if(TIMER_E_UNSUPPORTED_PRESCALE == Timer_state)
      {
         return TIMER_E_UNSUPPORTED_PRESCALE;
    1008:	8c ef       	ldi	r24, 0xFC	; 252
    100a:	3f c0       	rjmp	.+126    	; 0x108a <TIM_DelayUs+0x140>
      /* Change to timer pending state */ 
      Enu_State = Pending;
      return TIMER_E_PENDING;
   }
   /* Pending state */
   else if(Pending == Enu_State)
    100c:	81 30       	cpi	r24, 0x01	; 1
    100e:	d9 f5       	brne	.+118    	; 0x1086 <TIM_DelayUs+0x13c>
   {
      uint8_t u8_FlagState;
      /* Check timer state */
      Timer_state = TIM_GetStatus(TIM_channel, &u8_FlagState);
    1010:	be 01       	movw	r22, r28
    1012:	6f 5f       	subi	r22, 0xFF	; 255
    1014:	7f 4f       	sbci	r23, 0xFF	; 255
    1016:	81 2f       	mov	r24, r17
    1018:	0e 94 10 07 	call	0xe20	; 0xe20 <TIM_GetStatus>
      if(Timer_state == TIMER_OVERFLOW_FLAG)
    101c:	81 11       	cpse	r24, r1
    101e:	33 c0       	rjmp	.+102    	; 0x1086 <TIM_DelayUs+0x13c>
      {
         /* If all overflows are finished and reminder. */
         if(u8_OverflowsComplete == HIGH)
    1020:	80 91 7c 00 	lds	r24, 0x007C	; 0x80007c <u8_OverflowsComplete.1683>
    1024:	81 30       	cpi	r24, 0x01	; 1
    1026:	31 f4       	brne	.+12     	; 0x1034 <TIM_DelayUs+0xea>
         {
            /* Return to ready state */
            Enu_State = Ready;
    1028:	10 92 82 00 	sts	0x0082, r1	; 0x800082 <Enu_State.1685>
            u8_OverflowsComplete = LOW;
    102c:	10 92 7c 00 	sts	0x007C, r1	; 0x80007c <u8_OverflowsComplete.1683>
            /* return success message. */
            return TIMER_E_SUCCESS;
    1030:	80 e0       	ldi	r24, 0x00	; 0
    1032:	2b c0       	rjmp	.+86     	; 0x108a <TIM_DelayUs+0x140>
         }
         
         /* Decrement overflows number */
         u32_Overflows--;
    1034:	80 91 7e 00 	lds	r24, 0x007E	; 0x80007e <u32_Overflows.1682>
    1038:	90 91 7f 00 	lds	r25, 0x007F	; 0x80007f <u32_Overflows.1682+0x1>
    103c:	a0 91 80 00 	lds	r26, 0x0080	; 0x800080 <u32_Overflows.1682+0x2>
    1040:	b0 91 81 00 	lds	r27, 0x0081	; 0x800081 <u32_Overflows.1682+0x3>
    1044:	01 97       	sbiw	r24, 0x01	; 1
    1046:	a1 09       	sbc	r26, r1
    1048:	b1 09       	sbc	r27, r1
    104a:	80 93 7e 00 	sts	0x007E, r24	; 0x80007e <u32_Overflows.1682>
    104e:	90 93 7f 00 	sts	0x007F, r25	; 0x80007f <u32_Overflows.1682+0x1>
    1052:	a0 93 80 00 	sts	0x0080, r26	; 0x800080 <u32_Overflows.1682+0x2>
    1056:	b0 93 81 00 	sts	0x0081, r27	; 0x800081 <u32_Overflows.1682+0x3>
         /* If all overflows finished raise a flag so the next overflow will be the remainder's overflow */
         if(u32_Overflows == 0)
    105a:	89 2b       	or	r24, r25
    105c:	8a 2b       	or	r24, r26
    105e:	8b 2b       	or	r24, r27
    1060:	59 f4       	brne	.+22     	; 0x1078 <TIM_DelayUs+0x12e>
         {
            u8_OverflowsComplete = HIGH;
    1062:	81 e0       	ldi	r24, 0x01	; 1
    1064:	80 93 7c 00 	sts	0x007C, r24	; 0x80007c <u8_OverflowsComplete.1683>
            TIM_Start(TIM_channel, u8_Remindar);
    1068:	60 91 7d 00 	lds	r22, 0x007D	; 0x80007d <u8_Remindar.1684>
    106c:	70 e0       	ldi	r23, 0x00	; 0
    106e:	81 2f       	mov	r24, r17
    1070:	0e 94 ea 06 	call	0xdd4	; 0xdd4 <TIM_Start>
         {
            /* Start timer with full register */
            TIM_Start(TIM_channel, 255);
         }
         
         return TIMER_E_PENDING;
    1074:	8d ef       	ldi	r24, 0xFD	; 253
    1076:	09 c0       	rjmp	.+18     	; 0x108a <TIM_DelayUs+0x140>
            TIM_Start(TIM_channel, u8_Remindar);
         }
         else
         {
            /* Start timer with full register */
            TIM_Start(TIM_channel, 255);
    1078:	6f ef       	ldi	r22, 0xFF	; 255
    107a:	70 e0       	ldi	r23, 0x00	; 0
    107c:	81 2f       	mov	r24, r17
    107e:	0e 94 ea 06 	call	0xdd4	; 0xdd4 <TIM_Start>
         }
         
         return TIMER_E_PENDING;
    1082:	8d ef       	ldi	r24, 0xFD	; 253
    1084:	02 c0       	rjmp	.+4      	; 0x108a <TIM_DelayUs+0x140>
      }         
   }            
}
    1086:	01 c0       	rjmp	.+2      	; 0x108a <TIM_DelayUs+0x140>
TIMER_ERROR_state_t TIM_DelayUs(TIM_CH_t TIM_channel, TIM_Delay_t TIM_Delay)
{
   /* Make sure not invalid timer channel */
   if(TIM_channel >= INVALID_TIMER_CH)
   {
      return TIMER_E_INVALID_CH_NUM;
    1088:	8e ef       	ldi	r24, 0xFE	; 254
         }
         
         return TIMER_E_PENDING;
      }         
   }            
}
    108a:	0f 90       	pop	r0
    108c:	0f 90       	pop	r0
    108e:	0f 90       	pop	r0
    1090:	0f 90       	pop	r0
    1092:	df 91       	pop	r29
    1094:	cf 91       	pop	r28
    1096:	1f 91       	pop	r17
    1098:	ff 90       	pop	r15
    109a:	ef 90       	pop	r14
    109c:	df 90       	pop	r13
    109e:	cf 90       	pop	r12
    10a0:	bf 90       	pop	r11
    10a2:	af 90       	pop	r10
    10a4:	9f 90       	pop	r9
    10a6:	8f 90       	pop	r8
    10a8:	08 95       	ret

000010aa <TIM_DelayMs>:
* @param [out] TIM_Delay   -  Time to delay in milliseconds.
*
* @return function error state.
*/
TIMER_ERROR_state_t TIM_DelayMs(TIM_CH_t TIM_channel, TIM_Delay_t TIM_Delay)
{
    10aa:	8f 92       	push	r8
    10ac:	9f 92       	push	r9
    10ae:	af 92       	push	r10
    10b0:	bf 92       	push	r11
    10b2:	df 92       	push	r13
    10b4:	ef 92       	push	r14
    10b6:	ff 92       	push	r15
    10b8:	0f 93       	push	r16
    10ba:	1f 93       	push	r17
    10bc:	cf 93       	push	r28
    10be:	df 93       	push	r29
    10c0:	00 d0       	rcall	.+0      	; 0x10c2 <TIM_DelayMs+0x18>
    10c2:	00 d0       	rcall	.+0      	; 0x10c4 <TIM_DelayMs+0x1a>
    10c4:	cd b7       	in	r28, 0x3d	; 61
    10c6:	de b7       	in	r29, 0x3e	; 62
    10c8:	18 2f       	mov	r17, r24
    10ca:	04 2f       	mov	r16, r20
    10cc:	d5 2e       	mov	r13, r21
    10ce:	e6 2e       	mov	r14, r22
    10d0:	f7 2e       	mov	r15, r23
   /* Make sure not invalid timer channel */
   if(TIM_channel >= INVALID_TIMER_CH)
    10d2:	83 30       	cpi	r24, 0x03	; 3
    10d4:	08 f0       	brcs	.+2      	; 0x10d8 <TIM_DelayMs+0x2e>
    10d6:	9b c0       	rjmp	.+310    	; 0x120e <TIM_DelayMs+0x164>
   static uint8_t u8_Remindar = 0;
   static Enu_DelayStateMachine Enu_State = Ready;
   TIMER_ERROR_state_t Timer_state;
   
   /* Ready state */
   if(Ready == Enu_State)
    10d8:	80 91 7b 00 	lds	r24, 0x007B	; 0x80007b <Enu_State.1696>
    10dc:	81 11       	cpse	r24, r1
    10de:	59 c0       	rjmp	.+178    	; 0x1192 <TIM_DelayMs+0xe8>
   {
      /* Calculate needer frequency Ratio */
      float32_t f32_FreqRatio;
      Timer_state = GetFreqPrescaleRatio(TIM_channel, &f32_FreqRatio);
    10e0:	be 01       	movw	r22, r28
    10e2:	6f 5f       	subi	r22, 0xFF	; 255
    10e4:	7f 4f       	sbci	r23, 0xFF	; 255
    10e6:	81 2f       	mov	r24, r17
    10e8:	0e 94 3d 06 	call	0xc7a	; 0xc7a <GetFreqPrescaleRatio>
      if(TIMER_E_UNSUPPORTED_PRESCALE == Timer_state)
    10ec:	8c 3f       	cpi	r24, 0xFC	; 252
    10ee:	09 f4       	brne	.+2      	; 0x10f2 <TIM_DelayMs+0x48>
    10f0:	4e c0       	rjmp	.+156    	; 0x118e <TIM_DelayMs+0xe4>
      {
         return TIMER_E_UNSUPPORTED_PRESCALE;
      }
      
      if(f32_FreqRatio != 0)
    10f2:	89 80       	ldd	r8, Y+1	; 0x01
    10f4:	9a 80       	ldd	r9, Y+2	; 0x02
    10f6:	ab 80       	ldd	r10, Y+3	; 0x03
    10f8:	bc 80       	ldd	r11, Y+4	; 0x04
    10fa:	20 e0       	ldi	r18, 0x00	; 0
    10fc:	30 e0       	ldi	r19, 0x00	; 0
    10fe:	a9 01       	movw	r20, r18
    1100:	c5 01       	movw	r24, r10
    1102:	b4 01       	movw	r22, r8
    1104:	0e 94 18 09 	call	0x1230	; 0x1230 <__cmpsf2>
    1108:	88 23       	and	r24, r24
    110a:	81 f0       	breq	.+32     	; 0x112c <TIM_DelayMs+0x82>
      {
         TIM_Delay /= f32_FreqRatio;
    110c:	60 2f       	mov	r22, r16
    110e:	7d 2d       	mov	r23, r13
    1110:	8e 2d       	mov	r24, r14
    1112:	9f 2d       	mov	r25, r15
    1114:	0e 94 be 09 	call	0x137c	; 0x137c <__floatunsisf>
    1118:	a5 01       	movw	r20, r10
    111a:	94 01       	movw	r18, r8
    111c:	0e 94 1d 09 	call	0x123a	; 0x123a <__divsf3>
    1120:	0e 94 8f 09 	call	0x131e	; 0x131e <__fixunssfsi>
    1124:	06 2f       	mov	r16, r22
    1126:	d7 2e       	mov	r13, r23
    1128:	e8 2e       	mov	r14, r24
    112a:	f9 2e       	mov	r15, r25
      }
      
      /* Calculate how many overflows needed */
      u32_Overflows = TIM_Delay*1000 / 256;
    112c:	a8 ee       	ldi	r26, 0xE8	; 232
    112e:	b3 e0       	ldi	r27, 0x03	; 3
    1130:	20 2f       	mov	r18, r16
    1132:	3d 2d       	mov	r19, r13
    1134:	4e 2d       	mov	r20, r14
    1136:	5f 2d       	mov	r21, r15
    1138:	0e 94 14 0b 	call	0x1628	; 0x1628 <__muluhisi3>
    113c:	bb 27       	eor	r27, r27
    113e:	a9 2f       	mov	r26, r25
    1140:	98 2f       	mov	r25, r24
    1142:	87 2f       	mov	r24, r23
    1144:	80 93 77 00 	sts	0x0077, r24	; 0x800077 <u32_Overflows.1693>
    1148:	90 93 78 00 	sts	0x0078, r25	; 0x800078 <u32_Overflows.1693+0x1>
    114c:	a0 93 79 00 	sts	0x0079, r26	; 0x800079 <u32_Overflows.1693+0x2>
    1150:	b0 93 7a 00 	sts	0x007A, r27	; 0x80007a <u32_Overflows.1693+0x3>
      u8_Remindar = TIM_Delay*1000 % 256;
    1154:	28 ee       	ldi	r18, 0xE8	; 232
    1156:	02 9f       	mul	r16, r18
    1158:	00 2d       	mov	r16, r0
    115a:	11 24       	eor	r1, r1
    115c:	00 93 76 00 	sts	0x0076, r16	; 0x800076 <u8_Remindar.1695>
      
      if(u32_Overflows == 0)
    1160:	89 2b       	or	r24, r25
    1162:	8a 2b       	or	r24, r26
    1164:	8b 2b       	or	r24, r27
    1166:	49 f4       	brne	.+18     	; 0x117a <TIM_DelayMs+0xd0>
      {
         u8_OverflowsComplete = HIGH;
    1168:	81 e0       	ldi	r24, 0x01	; 1
    116a:	80 93 75 00 	sts	0x0075, r24	; 0x800075 <u8_OverflowsComplete.1694>
         TIM_Start(TIM_channel, u8_Remindar);
    116e:	60 2f       	mov	r22, r16
    1170:	70 e0       	ldi	r23, 0x00	; 0
    1172:	81 2f       	mov	r24, r17
    1174:	0e 94 ea 06 	call	0xdd4	; 0xdd4 <TIM_Start>
    1178:	05 c0       	rjmp	.+10     	; 0x1184 <TIM_DelayMs+0xda>
      }
      else
      {
         /* Start timer with full register */
         TIM_Start(TIM_channel, 255);
    117a:	6f ef       	ldi	r22, 0xFF	; 255
    117c:	70 e0       	ldi	r23, 0x00	; 0
    117e:	81 2f       	mov	r24, r17
    1180:	0e 94 ea 06 	call	0xdd4	; 0xdd4 <TIM_Start>
      }
      /* Change to timer pending state */
      Enu_State= Pending;
    1184:	81 e0       	ldi	r24, 0x01	; 1
    1186:	80 93 7b 00 	sts	0x007B, r24	; 0x80007b <Enu_State.1696>
      return TIMER_E_PENDING;
    118a:	8d ef       	ldi	r24, 0xFD	; 253
    118c:	41 c0       	rjmp	.+130    	; 0x1210 <TIM_DelayMs+0x166>
      /* Calculate needer frequency Ratio */
      float32_t f32_FreqRatio;
      Timer_state = GetFreqPrescaleRatio(TIM_channel, &f32_FreqRatio);
      if(TIMER_E_UNSUPPORTED_PRESCALE == Timer_state)
      {
         return TIMER_E_UNSUPPORTED_PRESCALE;
    118e:	8c ef       	ldi	r24, 0xFC	; 252
    1190:	3f c0       	rjmp	.+126    	; 0x1210 <TIM_DelayMs+0x166>
      /* Change to timer pending state */
      Enu_State= Pending;
      return TIMER_E_PENDING;
   }
   /* Pending state */
   else if(Pending == Enu_State)
    1192:	81 30       	cpi	r24, 0x01	; 1
    1194:	d9 f5       	brne	.+118    	; 0x120c <TIM_DelayMs+0x162>
   {
      uint8_t u8_FlagState;
      /* Check timer state */
      Timer_state= TIM_GetStatus(TIM_channel, &u8_FlagState);
    1196:	be 01       	movw	r22, r28
    1198:	6f 5f       	subi	r22, 0xFF	; 255
    119a:	7f 4f       	sbci	r23, 0xFF	; 255
    119c:	81 2f       	mov	r24, r17
    119e:	0e 94 10 07 	call	0xe20	; 0xe20 <TIM_GetStatus>
      if(Timer_state == TIMER_OVERFLOW_FLAG)
    11a2:	81 11       	cpse	r24, r1
    11a4:	33 c0       	rjmp	.+102    	; 0x120c <TIM_DelayMs+0x162>
      {
         /* If all overflows are finished and reminder. */
         if(u8_OverflowsComplete == HIGH)
    11a6:	80 91 75 00 	lds	r24, 0x0075	; 0x800075 <u8_OverflowsComplete.1694>
    11aa:	81 30       	cpi	r24, 0x01	; 1
    11ac:	31 f4       	brne	.+12     	; 0x11ba <TIM_DelayMs+0x110>
         {
            /* Return to ready state */
            Enu_State = Ready;
    11ae:	10 92 7b 00 	sts	0x007B, r1	; 0x80007b <Enu_State.1696>
            u8_OverflowsComplete = LOW;
    11b2:	10 92 75 00 	sts	0x0075, r1	; 0x800075 <u8_OverflowsComplete.1694>
            /* return success message. */
            return TIMER_E_SUCCESS;
    11b6:	80 e0       	ldi	r24, 0x00	; 0
    11b8:	2b c0       	rjmp	.+86     	; 0x1210 <TIM_DelayMs+0x166>
         }
         
         /* Decrement overflows number */
         u32_Overflows--;
    11ba:	80 91 77 00 	lds	r24, 0x0077	; 0x800077 <u32_Overflows.1693>
    11be:	90 91 78 00 	lds	r25, 0x0078	; 0x800078 <u32_Overflows.1693+0x1>
    11c2:	a0 91 79 00 	lds	r26, 0x0079	; 0x800079 <u32_Overflows.1693+0x2>
    11c6:	b0 91 7a 00 	lds	r27, 0x007A	; 0x80007a <u32_Overflows.1693+0x3>
    11ca:	01 97       	sbiw	r24, 0x01	; 1
    11cc:	a1 09       	sbc	r26, r1
    11ce:	b1 09       	sbc	r27, r1
    11d0:	80 93 77 00 	sts	0x0077, r24	; 0x800077 <u32_Overflows.1693>
    11d4:	90 93 78 00 	sts	0x0078, r25	; 0x800078 <u32_Overflows.1693+0x1>
    11d8:	a0 93 79 00 	sts	0x0079, r26	; 0x800079 <u32_Overflows.1693+0x2>
    11dc:	b0 93 7a 00 	sts	0x007A, r27	; 0x80007a <u32_Overflows.1693+0x3>
         /* If all overflows finished raise a flag so the next overflow will be the remainder's overflow */
         if(u32_Overflows == 0)
    11e0:	89 2b       	or	r24, r25
    11e2:	8a 2b       	or	r24, r26
    11e4:	8b 2b       	or	r24, r27
    11e6:	59 f4       	brne	.+22     	; 0x11fe <TIM_DelayMs+0x154>
         {
            u8_OverflowsComplete = HIGH;
    11e8:	81 e0       	ldi	r24, 0x01	; 1
    11ea:	80 93 75 00 	sts	0x0075, r24	; 0x800075 <u8_OverflowsComplete.1694>
            TIM_Start(TIM_channel, u8_Remindar);
    11ee:	60 91 76 00 	lds	r22, 0x0076	; 0x800076 <u8_Remindar.1695>
    11f2:	70 e0       	ldi	r23, 0x00	; 0
    11f4:	81 2f       	mov	r24, r17
    11f6:	0e 94 ea 06 	call	0xdd4	; 0xdd4 <TIM_Start>
         {
            /* Start timer with full register */
            TIM_Start(TIM_channel, 255);
         }
         
         return TIMER_E_PENDING;
    11fa:	8d ef       	ldi	r24, 0xFD	; 253
    11fc:	09 c0       	rjmp	.+18     	; 0x1210 <TIM_DelayMs+0x166>
            TIM_Start(TIM_channel, u8_Remindar);
         }
         else
         {
            /* Start timer with full register */
            TIM_Start(TIM_channel, 255);
    11fe:	6f ef       	ldi	r22, 0xFF	; 255
    1200:	70 e0       	ldi	r23, 0x00	; 0
    1202:	81 2f       	mov	r24, r17
    1204:	0e 94 ea 06 	call	0xdd4	; 0xdd4 <TIM_Start>
         }
         
         return TIMER_E_PENDING;
    1208:	8d ef       	ldi	r24, 0xFD	; 253
    120a:	02 c0       	rjmp	.+4      	; 0x1210 <TIM_DelayMs+0x166>
      }
   }
    120c:	01 c0       	rjmp	.+2      	; 0x1210 <TIM_DelayMs+0x166>
TIMER_ERROR_state_t TIM_DelayMs(TIM_CH_t TIM_channel, TIM_Delay_t TIM_Delay)
{
   /* Make sure not invalid timer channel */
   if(TIM_channel >= INVALID_TIMER_CH)
   {
      return TIMER_E_INVALID_CH_NUM;
    120e:	8e ef       	ldi	r24, 0xFE	; 254
         }
         
         return TIMER_E_PENDING;
      }
   }
    1210:	0f 90       	pop	r0
    1212:	0f 90       	pop	r0
    1214:	0f 90       	pop	r0
    1216:	0f 90       	pop	r0
    1218:	df 91       	pop	r29
    121a:	cf 91       	pop	r28
    121c:	1f 91       	pop	r17
    121e:	0f 91       	pop	r16
    1220:	ff 90       	pop	r15
    1222:	ef 90       	pop	r14
    1224:	df 90       	pop	r13
    1226:	bf 90       	pop	r11
    1228:	af 90       	pop	r10
    122a:	9f 90       	pop	r9
    122c:	8f 90       	pop	r8
    122e:	08 95       	ret

00001230 <__cmpsf2>:
    1230:	0e 94 fb 09 	call	0x13f6	; 0x13f6 <__fp_cmp>
    1234:	08 f4       	brcc	.+2      	; 0x1238 <__cmpsf2+0x8>
    1236:	81 e0       	ldi	r24, 0x01	; 1
    1238:	08 95       	ret

0000123a <__divsf3>:
    123a:	0e 94 31 09 	call	0x1262	; 0x1262 <__divsf3x>
    123e:	0c 94 36 0a 	jmp	0x146c	; 0x146c <__fp_round>
    1242:	0e 94 2f 0a 	call	0x145e	; 0x145e <__fp_pscB>
    1246:	58 f0       	brcs	.+22     	; 0x125e <__divsf3+0x24>
    1248:	0e 94 28 0a 	call	0x1450	; 0x1450 <__fp_pscA>
    124c:	40 f0       	brcs	.+16     	; 0x125e <__divsf3+0x24>
    124e:	29 f4       	brne	.+10     	; 0x125a <__divsf3+0x20>
    1250:	5f 3f       	cpi	r21, 0xFF	; 255
    1252:	29 f0       	breq	.+10     	; 0x125e <__divsf3+0x24>
    1254:	0c 94 1f 0a 	jmp	0x143e	; 0x143e <__fp_inf>
    1258:	51 11       	cpse	r21, r1
    125a:	0c 94 6a 0a 	jmp	0x14d4	; 0x14d4 <__fp_szero>
    125e:	0c 94 25 0a 	jmp	0x144a	; 0x144a <__fp_nan>

00001262 <__divsf3x>:
    1262:	0e 94 47 0a 	call	0x148e	; 0x148e <__fp_split3>
    1266:	68 f3       	brcs	.-38     	; 0x1242 <__divsf3+0x8>

00001268 <__divsf3_pse>:
    1268:	99 23       	and	r25, r25
    126a:	b1 f3       	breq	.-20     	; 0x1258 <__divsf3+0x1e>
    126c:	55 23       	and	r21, r21
    126e:	91 f3       	breq	.-28     	; 0x1254 <__divsf3+0x1a>
    1270:	95 1b       	sub	r25, r21
    1272:	55 0b       	sbc	r21, r21
    1274:	bb 27       	eor	r27, r27
    1276:	aa 27       	eor	r26, r26
    1278:	62 17       	cp	r22, r18
    127a:	73 07       	cpc	r23, r19
    127c:	84 07       	cpc	r24, r20
    127e:	38 f0       	brcs	.+14     	; 0x128e <__divsf3_pse+0x26>
    1280:	9f 5f       	subi	r25, 0xFF	; 255
    1282:	5f 4f       	sbci	r21, 0xFF	; 255
    1284:	22 0f       	add	r18, r18
    1286:	33 1f       	adc	r19, r19
    1288:	44 1f       	adc	r20, r20
    128a:	aa 1f       	adc	r26, r26
    128c:	a9 f3       	breq	.-22     	; 0x1278 <__divsf3_pse+0x10>
    128e:	35 d0       	rcall	.+106    	; 0x12fa <__divsf3_pse+0x92>
    1290:	0e 2e       	mov	r0, r30
    1292:	3a f0       	brmi	.+14     	; 0x12a2 <__divsf3_pse+0x3a>
    1294:	e0 e8       	ldi	r30, 0x80	; 128
    1296:	32 d0       	rcall	.+100    	; 0x12fc <__divsf3_pse+0x94>
    1298:	91 50       	subi	r25, 0x01	; 1
    129a:	50 40       	sbci	r21, 0x00	; 0
    129c:	e6 95       	lsr	r30
    129e:	00 1c       	adc	r0, r0
    12a0:	ca f7       	brpl	.-14     	; 0x1294 <__divsf3_pse+0x2c>
    12a2:	2b d0       	rcall	.+86     	; 0x12fa <__divsf3_pse+0x92>
    12a4:	fe 2f       	mov	r31, r30
    12a6:	29 d0       	rcall	.+82     	; 0x12fa <__divsf3_pse+0x92>
    12a8:	66 0f       	add	r22, r22
    12aa:	77 1f       	adc	r23, r23
    12ac:	88 1f       	adc	r24, r24
    12ae:	bb 1f       	adc	r27, r27
    12b0:	26 17       	cp	r18, r22
    12b2:	37 07       	cpc	r19, r23
    12b4:	48 07       	cpc	r20, r24
    12b6:	ab 07       	cpc	r26, r27
    12b8:	b0 e8       	ldi	r27, 0x80	; 128
    12ba:	09 f0       	breq	.+2      	; 0x12be <__divsf3_pse+0x56>
    12bc:	bb 0b       	sbc	r27, r27
    12be:	80 2d       	mov	r24, r0
    12c0:	bf 01       	movw	r22, r30
    12c2:	ff 27       	eor	r31, r31
    12c4:	93 58       	subi	r25, 0x83	; 131
    12c6:	5f 4f       	sbci	r21, 0xFF	; 255
    12c8:	3a f0       	brmi	.+14     	; 0x12d8 <__divsf3_pse+0x70>
    12ca:	9e 3f       	cpi	r25, 0xFE	; 254
    12cc:	51 05       	cpc	r21, r1
    12ce:	78 f0       	brcs	.+30     	; 0x12ee <__divsf3_pse+0x86>
    12d0:	0c 94 1f 0a 	jmp	0x143e	; 0x143e <__fp_inf>
    12d4:	0c 94 6a 0a 	jmp	0x14d4	; 0x14d4 <__fp_szero>
    12d8:	5f 3f       	cpi	r21, 0xFF	; 255
    12da:	e4 f3       	brlt	.-8      	; 0x12d4 <__divsf3_pse+0x6c>
    12dc:	98 3e       	cpi	r25, 0xE8	; 232
    12de:	d4 f3       	brlt	.-12     	; 0x12d4 <__divsf3_pse+0x6c>
    12e0:	86 95       	lsr	r24
    12e2:	77 95       	ror	r23
    12e4:	67 95       	ror	r22
    12e6:	b7 95       	ror	r27
    12e8:	f7 95       	ror	r31
    12ea:	9f 5f       	subi	r25, 0xFF	; 255
    12ec:	c9 f7       	brne	.-14     	; 0x12e0 <__divsf3_pse+0x78>
    12ee:	88 0f       	add	r24, r24
    12f0:	91 1d       	adc	r25, r1
    12f2:	96 95       	lsr	r25
    12f4:	87 95       	ror	r24
    12f6:	97 f9       	bld	r25, 7
    12f8:	08 95       	ret
    12fa:	e1 e0       	ldi	r30, 0x01	; 1
    12fc:	66 0f       	add	r22, r22
    12fe:	77 1f       	adc	r23, r23
    1300:	88 1f       	adc	r24, r24
    1302:	bb 1f       	adc	r27, r27
    1304:	62 17       	cp	r22, r18
    1306:	73 07       	cpc	r23, r19
    1308:	84 07       	cpc	r24, r20
    130a:	ba 07       	cpc	r27, r26
    130c:	20 f0       	brcs	.+8      	; 0x1316 <__divsf3_pse+0xae>
    130e:	62 1b       	sub	r22, r18
    1310:	73 0b       	sbc	r23, r19
    1312:	84 0b       	sbc	r24, r20
    1314:	ba 0b       	sbc	r27, r26
    1316:	ee 1f       	adc	r30, r30
    1318:	88 f7       	brcc	.-30     	; 0x12fc <__divsf3_pse+0x94>
    131a:	e0 95       	com	r30
    131c:	08 95       	ret

0000131e <__fixunssfsi>:
    131e:	0e 94 4f 0a 	call	0x149e	; 0x149e <__fp_splitA>
    1322:	88 f0       	brcs	.+34     	; 0x1346 <__fixunssfsi+0x28>
    1324:	9f 57       	subi	r25, 0x7F	; 127
    1326:	98 f0       	brcs	.+38     	; 0x134e <__fixunssfsi+0x30>
    1328:	b9 2f       	mov	r27, r25
    132a:	99 27       	eor	r25, r25
    132c:	b7 51       	subi	r27, 0x17	; 23
    132e:	b0 f0       	brcs	.+44     	; 0x135c <__fixunssfsi+0x3e>
    1330:	e1 f0       	breq	.+56     	; 0x136a <__fixunssfsi+0x4c>
    1332:	66 0f       	add	r22, r22
    1334:	77 1f       	adc	r23, r23
    1336:	88 1f       	adc	r24, r24
    1338:	99 1f       	adc	r25, r25
    133a:	1a f0       	brmi	.+6      	; 0x1342 <__fixunssfsi+0x24>
    133c:	ba 95       	dec	r27
    133e:	c9 f7       	brne	.-14     	; 0x1332 <__fixunssfsi+0x14>
    1340:	14 c0       	rjmp	.+40     	; 0x136a <__fixunssfsi+0x4c>
    1342:	b1 30       	cpi	r27, 0x01	; 1
    1344:	91 f0       	breq	.+36     	; 0x136a <__fixunssfsi+0x4c>
    1346:	0e 94 69 0a 	call	0x14d2	; 0x14d2 <__fp_zero>
    134a:	b1 e0       	ldi	r27, 0x01	; 1
    134c:	08 95       	ret
    134e:	0c 94 69 0a 	jmp	0x14d2	; 0x14d2 <__fp_zero>
    1352:	67 2f       	mov	r22, r23
    1354:	78 2f       	mov	r23, r24
    1356:	88 27       	eor	r24, r24
    1358:	b8 5f       	subi	r27, 0xF8	; 248
    135a:	39 f0       	breq	.+14     	; 0x136a <__fixunssfsi+0x4c>
    135c:	b9 3f       	cpi	r27, 0xF9	; 249
    135e:	cc f3       	brlt	.-14     	; 0x1352 <__fixunssfsi+0x34>
    1360:	86 95       	lsr	r24
    1362:	77 95       	ror	r23
    1364:	67 95       	ror	r22
    1366:	b3 95       	inc	r27
    1368:	d9 f7       	brne	.-10     	; 0x1360 <__fixunssfsi+0x42>
    136a:	3e f4       	brtc	.+14     	; 0x137a <__fixunssfsi+0x5c>
    136c:	90 95       	com	r25
    136e:	80 95       	com	r24
    1370:	70 95       	com	r23
    1372:	61 95       	neg	r22
    1374:	7f 4f       	sbci	r23, 0xFF	; 255
    1376:	8f 4f       	sbci	r24, 0xFF	; 255
    1378:	9f 4f       	sbci	r25, 0xFF	; 255
    137a:	08 95       	ret

0000137c <__floatunsisf>:
    137c:	e8 94       	clt
    137e:	09 c0       	rjmp	.+18     	; 0x1392 <__floatsisf+0x12>

00001380 <__floatsisf>:
    1380:	97 fb       	bst	r25, 7
    1382:	3e f4       	brtc	.+14     	; 0x1392 <__floatsisf+0x12>
    1384:	90 95       	com	r25
    1386:	80 95       	com	r24
    1388:	70 95       	com	r23
    138a:	61 95       	neg	r22
    138c:	7f 4f       	sbci	r23, 0xFF	; 255
    138e:	8f 4f       	sbci	r24, 0xFF	; 255
    1390:	9f 4f       	sbci	r25, 0xFF	; 255
    1392:	99 23       	and	r25, r25
    1394:	a9 f0       	breq	.+42     	; 0x13c0 <__floatsisf+0x40>
    1396:	f9 2f       	mov	r31, r25
    1398:	96 e9       	ldi	r25, 0x96	; 150
    139a:	bb 27       	eor	r27, r27
    139c:	93 95       	inc	r25
    139e:	f6 95       	lsr	r31
    13a0:	87 95       	ror	r24
    13a2:	77 95       	ror	r23
    13a4:	67 95       	ror	r22
    13a6:	b7 95       	ror	r27
    13a8:	f1 11       	cpse	r31, r1
    13aa:	f8 cf       	rjmp	.-16     	; 0x139c <__floatsisf+0x1c>
    13ac:	fa f4       	brpl	.+62     	; 0x13ec <__floatsisf+0x6c>
    13ae:	bb 0f       	add	r27, r27
    13b0:	11 f4       	brne	.+4      	; 0x13b6 <__floatsisf+0x36>
    13b2:	60 ff       	sbrs	r22, 0
    13b4:	1b c0       	rjmp	.+54     	; 0x13ec <__floatsisf+0x6c>
    13b6:	6f 5f       	subi	r22, 0xFF	; 255
    13b8:	7f 4f       	sbci	r23, 0xFF	; 255
    13ba:	8f 4f       	sbci	r24, 0xFF	; 255
    13bc:	9f 4f       	sbci	r25, 0xFF	; 255
    13be:	16 c0       	rjmp	.+44     	; 0x13ec <__floatsisf+0x6c>
    13c0:	88 23       	and	r24, r24
    13c2:	11 f0       	breq	.+4      	; 0x13c8 <__floatsisf+0x48>
    13c4:	96 e9       	ldi	r25, 0x96	; 150
    13c6:	11 c0       	rjmp	.+34     	; 0x13ea <__floatsisf+0x6a>
    13c8:	77 23       	and	r23, r23
    13ca:	21 f0       	breq	.+8      	; 0x13d4 <__floatsisf+0x54>
    13cc:	9e e8       	ldi	r25, 0x8E	; 142
    13ce:	87 2f       	mov	r24, r23
    13d0:	76 2f       	mov	r23, r22
    13d2:	05 c0       	rjmp	.+10     	; 0x13de <__floatsisf+0x5e>
    13d4:	66 23       	and	r22, r22
    13d6:	71 f0       	breq	.+28     	; 0x13f4 <__floatsisf+0x74>
    13d8:	96 e8       	ldi	r25, 0x86	; 134
    13da:	86 2f       	mov	r24, r22
    13dc:	70 e0       	ldi	r23, 0x00	; 0
    13de:	60 e0       	ldi	r22, 0x00	; 0
    13e0:	2a f0       	brmi	.+10     	; 0x13ec <__floatsisf+0x6c>
    13e2:	9a 95       	dec	r25
    13e4:	66 0f       	add	r22, r22
    13e6:	77 1f       	adc	r23, r23
    13e8:	88 1f       	adc	r24, r24
    13ea:	da f7       	brpl	.-10     	; 0x13e2 <__floatsisf+0x62>
    13ec:	88 0f       	add	r24, r24
    13ee:	96 95       	lsr	r25
    13f0:	87 95       	ror	r24
    13f2:	97 f9       	bld	r25, 7
    13f4:	08 95       	ret

000013f6 <__fp_cmp>:
    13f6:	99 0f       	add	r25, r25
    13f8:	00 08       	sbc	r0, r0
    13fa:	55 0f       	add	r21, r21
    13fc:	aa 0b       	sbc	r26, r26
    13fe:	e0 e8       	ldi	r30, 0x80	; 128
    1400:	fe ef       	ldi	r31, 0xFE	; 254
    1402:	16 16       	cp	r1, r22
    1404:	17 06       	cpc	r1, r23
    1406:	e8 07       	cpc	r30, r24
    1408:	f9 07       	cpc	r31, r25
    140a:	c0 f0       	brcs	.+48     	; 0x143c <__fp_cmp+0x46>
    140c:	12 16       	cp	r1, r18
    140e:	13 06       	cpc	r1, r19
    1410:	e4 07       	cpc	r30, r20
    1412:	f5 07       	cpc	r31, r21
    1414:	98 f0       	brcs	.+38     	; 0x143c <__fp_cmp+0x46>
    1416:	62 1b       	sub	r22, r18
    1418:	73 0b       	sbc	r23, r19
    141a:	84 0b       	sbc	r24, r20
    141c:	95 0b       	sbc	r25, r21
    141e:	39 f4       	brne	.+14     	; 0x142e <__fp_cmp+0x38>
    1420:	0a 26       	eor	r0, r26
    1422:	61 f0       	breq	.+24     	; 0x143c <__fp_cmp+0x46>
    1424:	23 2b       	or	r18, r19
    1426:	24 2b       	or	r18, r20
    1428:	25 2b       	or	r18, r21
    142a:	21 f4       	brne	.+8      	; 0x1434 <__fp_cmp+0x3e>
    142c:	08 95       	ret
    142e:	0a 26       	eor	r0, r26
    1430:	09 f4       	brne	.+2      	; 0x1434 <__fp_cmp+0x3e>
    1432:	a1 40       	sbci	r26, 0x01	; 1
    1434:	a6 95       	lsr	r26
    1436:	8f ef       	ldi	r24, 0xFF	; 255
    1438:	81 1d       	adc	r24, r1
    143a:	81 1d       	adc	r24, r1
    143c:	08 95       	ret

0000143e <__fp_inf>:
    143e:	97 f9       	bld	r25, 7
    1440:	9f 67       	ori	r25, 0x7F	; 127
    1442:	80 e8       	ldi	r24, 0x80	; 128
    1444:	70 e0       	ldi	r23, 0x00	; 0
    1446:	60 e0       	ldi	r22, 0x00	; 0
    1448:	08 95       	ret

0000144a <__fp_nan>:
    144a:	9f ef       	ldi	r25, 0xFF	; 255
    144c:	80 ec       	ldi	r24, 0xC0	; 192
    144e:	08 95       	ret

00001450 <__fp_pscA>:
    1450:	00 24       	eor	r0, r0
    1452:	0a 94       	dec	r0
    1454:	16 16       	cp	r1, r22
    1456:	17 06       	cpc	r1, r23
    1458:	18 06       	cpc	r1, r24
    145a:	09 06       	cpc	r0, r25
    145c:	08 95       	ret

0000145e <__fp_pscB>:
    145e:	00 24       	eor	r0, r0
    1460:	0a 94       	dec	r0
    1462:	12 16       	cp	r1, r18
    1464:	13 06       	cpc	r1, r19
    1466:	14 06       	cpc	r1, r20
    1468:	05 06       	cpc	r0, r21
    146a:	08 95       	ret

0000146c <__fp_round>:
    146c:	09 2e       	mov	r0, r25
    146e:	03 94       	inc	r0
    1470:	00 0c       	add	r0, r0
    1472:	11 f4       	brne	.+4      	; 0x1478 <__fp_round+0xc>
    1474:	88 23       	and	r24, r24
    1476:	52 f0       	brmi	.+20     	; 0x148c <__fp_round+0x20>
    1478:	bb 0f       	add	r27, r27
    147a:	40 f4       	brcc	.+16     	; 0x148c <__fp_round+0x20>
    147c:	bf 2b       	or	r27, r31
    147e:	11 f4       	brne	.+4      	; 0x1484 <__fp_round+0x18>
    1480:	60 ff       	sbrs	r22, 0
    1482:	04 c0       	rjmp	.+8      	; 0x148c <__fp_round+0x20>
    1484:	6f 5f       	subi	r22, 0xFF	; 255
    1486:	7f 4f       	sbci	r23, 0xFF	; 255
    1488:	8f 4f       	sbci	r24, 0xFF	; 255
    148a:	9f 4f       	sbci	r25, 0xFF	; 255
    148c:	08 95       	ret

0000148e <__fp_split3>:
    148e:	57 fd       	sbrc	r21, 7
    1490:	90 58       	subi	r25, 0x80	; 128
    1492:	44 0f       	add	r20, r20
    1494:	55 1f       	adc	r21, r21
    1496:	59 f0       	breq	.+22     	; 0x14ae <__fp_splitA+0x10>
    1498:	5f 3f       	cpi	r21, 0xFF	; 255
    149a:	71 f0       	breq	.+28     	; 0x14b8 <__fp_splitA+0x1a>
    149c:	47 95       	ror	r20

0000149e <__fp_splitA>:
    149e:	88 0f       	add	r24, r24
    14a0:	97 fb       	bst	r25, 7
    14a2:	99 1f       	adc	r25, r25
    14a4:	61 f0       	breq	.+24     	; 0x14be <__fp_splitA+0x20>
    14a6:	9f 3f       	cpi	r25, 0xFF	; 255
    14a8:	79 f0       	breq	.+30     	; 0x14c8 <__fp_splitA+0x2a>
    14aa:	87 95       	ror	r24
    14ac:	08 95       	ret
    14ae:	12 16       	cp	r1, r18
    14b0:	13 06       	cpc	r1, r19
    14b2:	14 06       	cpc	r1, r20
    14b4:	55 1f       	adc	r21, r21
    14b6:	f2 cf       	rjmp	.-28     	; 0x149c <__fp_split3+0xe>
    14b8:	46 95       	lsr	r20
    14ba:	f1 df       	rcall	.-30     	; 0x149e <__fp_splitA>
    14bc:	08 c0       	rjmp	.+16     	; 0x14ce <__fp_splitA+0x30>
    14be:	16 16       	cp	r1, r22
    14c0:	17 06       	cpc	r1, r23
    14c2:	18 06       	cpc	r1, r24
    14c4:	99 1f       	adc	r25, r25
    14c6:	f1 cf       	rjmp	.-30     	; 0x14aa <__fp_splitA+0xc>
    14c8:	86 95       	lsr	r24
    14ca:	71 05       	cpc	r23, r1
    14cc:	61 05       	cpc	r22, r1
    14ce:	08 94       	sec
    14d0:	08 95       	ret

000014d2 <__fp_zero>:
    14d2:	e8 94       	clt

000014d4 <__fp_szero>:
    14d4:	bb 27       	eor	r27, r27
    14d6:	66 27       	eor	r22, r22
    14d8:	77 27       	eor	r23, r23
    14da:	cb 01       	movw	r24, r22
    14dc:	97 f9       	bld	r25, 7
    14de:	08 95       	ret

000014e0 <__mulsf3>:
    14e0:	0e 94 83 0a 	call	0x1506	; 0x1506 <__mulsf3x>
    14e4:	0c 94 36 0a 	jmp	0x146c	; 0x146c <__fp_round>
    14e8:	0e 94 28 0a 	call	0x1450	; 0x1450 <__fp_pscA>
    14ec:	38 f0       	brcs	.+14     	; 0x14fc <__mulsf3+0x1c>
    14ee:	0e 94 2f 0a 	call	0x145e	; 0x145e <__fp_pscB>
    14f2:	20 f0       	brcs	.+8      	; 0x14fc <__mulsf3+0x1c>
    14f4:	95 23       	and	r25, r21
    14f6:	11 f0       	breq	.+4      	; 0x14fc <__mulsf3+0x1c>
    14f8:	0c 94 1f 0a 	jmp	0x143e	; 0x143e <__fp_inf>
    14fc:	0c 94 25 0a 	jmp	0x144a	; 0x144a <__fp_nan>
    1500:	11 24       	eor	r1, r1
    1502:	0c 94 6a 0a 	jmp	0x14d4	; 0x14d4 <__fp_szero>

00001506 <__mulsf3x>:
    1506:	0e 94 47 0a 	call	0x148e	; 0x148e <__fp_split3>
    150a:	70 f3       	brcs	.-36     	; 0x14e8 <__mulsf3+0x8>

0000150c <__mulsf3_pse>:
    150c:	95 9f       	mul	r25, r21
    150e:	c1 f3       	breq	.-16     	; 0x1500 <__mulsf3+0x20>
    1510:	95 0f       	add	r25, r21
    1512:	50 e0       	ldi	r21, 0x00	; 0
    1514:	55 1f       	adc	r21, r21
    1516:	62 9f       	mul	r22, r18
    1518:	f0 01       	movw	r30, r0
    151a:	72 9f       	mul	r23, r18
    151c:	bb 27       	eor	r27, r27
    151e:	f0 0d       	add	r31, r0
    1520:	b1 1d       	adc	r27, r1
    1522:	63 9f       	mul	r22, r19
    1524:	aa 27       	eor	r26, r26
    1526:	f0 0d       	add	r31, r0
    1528:	b1 1d       	adc	r27, r1
    152a:	aa 1f       	adc	r26, r26
    152c:	64 9f       	mul	r22, r20
    152e:	66 27       	eor	r22, r22
    1530:	b0 0d       	add	r27, r0
    1532:	a1 1d       	adc	r26, r1
    1534:	66 1f       	adc	r22, r22
    1536:	82 9f       	mul	r24, r18
    1538:	22 27       	eor	r18, r18
    153a:	b0 0d       	add	r27, r0
    153c:	a1 1d       	adc	r26, r1
    153e:	62 1f       	adc	r22, r18
    1540:	73 9f       	mul	r23, r19
    1542:	b0 0d       	add	r27, r0
    1544:	a1 1d       	adc	r26, r1
    1546:	62 1f       	adc	r22, r18
    1548:	83 9f       	mul	r24, r19
    154a:	a0 0d       	add	r26, r0
    154c:	61 1d       	adc	r22, r1
    154e:	22 1f       	adc	r18, r18
    1550:	74 9f       	mul	r23, r20
    1552:	33 27       	eor	r19, r19
    1554:	a0 0d       	add	r26, r0
    1556:	61 1d       	adc	r22, r1
    1558:	23 1f       	adc	r18, r19
    155a:	84 9f       	mul	r24, r20
    155c:	60 0d       	add	r22, r0
    155e:	21 1d       	adc	r18, r1
    1560:	82 2f       	mov	r24, r18
    1562:	76 2f       	mov	r23, r22
    1564:	6a 2f       	mov	r22, r26
    1566:	11 24       	eor	r1, r1
    1568:	9f 57       	subi	r25, 0x7F	; 127
    156a:	50 40       	sbci	r21, 0x00	; 0
    156c:	9a f0       	brmi	.+38     	; 0x1594 <__mulsf3_pse+0x88>
    156e:	f1 f0       	breq	.+60     	; 0x15ac <__mulsf3_pse+0xa0>
    1570:	88 23       	and	r24, r24
    1572:	4a f0       	brmi	.+18     	; 0x1586 <__mulsf3_pse+0x7a>
    1574:	ee 0f       	add	r30, r30
    1576:	ff 1f       	adc	r31, r31
    1578:	bb 1f       	adc	r27, r27
    157a:	66 1f       	adc	r22, r22
    157c:	77 1f       	adc	r23, r23
    157e:	88 1f       	adc	r24, r24
    1580:	91 50       	subi	r25, 0x01	; 1
    1582:	50 40       	sbci	r21, 0x00	; 0
    1584:	a9 f7       	brne	.-22     	; 0x1570 <__mulsf3_pse+0x64>
    1586:	9e 3f       	cpi	r25, 0xFE	; 254
    1588:	51 05       	cpc	r21, r1
    158a:	80 f0       	brcs	.+32     	; 0x15ac <__mulsf3_pse+0xa0>
    158c:	0c 94 1f 0a 	jmp	0x143e	; 0x143e <__fp_inf>
    1590:	0c 94 6a 0a 	jmp	0x14d4	; 0x14d4 <__fp_szero>
    1594:	5f 3f       	cpi	r21, 0xFF	; 255
    1596:	e4 f3       	brlt	.-8      	; 0x1590 <__mulsf3_pse+0x84>
    1598:	98 3e       	cpi	r25, 0xE8	; 232
    159a:	d4 f3       	brlt	.-12     	; 0x1590 <__mulsf3_pse+0x84>
    159c:	86 95       	lsr	r24
    159e:	77 95       	ror	r23
    15a0:	67 95       	ror	r22
    15a2:	b7 95       	ror	r27
    15a4:	f7 95       	ror	r31
    15a6:	e7 95       	ror	r30
    15a8:	9f 5f       	subi	r25, 0xFF	; 255
    15aa:	c1 f7       	brne	.-16     	; 0x159c <__mulsf3_pse+0x90>
    15ac:	fe 2b       	or	r31, r30
    15ae:	88 0f       	add	r24, r24
    15b0:	91 1d       	adc	r25, r1
    15b2:	96 95       	lsr	r25
    15b4:	87 95       	ror	r24
    15b6:	97 f9       	bld	r25, 7
    15b8:	08 95       	ret

000015ba <__udivmodsi4>:
    15ba:	a1 e2       	ldi	r26, 0x21	; 33
    15bc:	1a 2e       	mov	r1, r26
    15be:	aa 1b       	sub	r26, r26
    15c0:	bb 1b       	sub	r27, r27
    15c2:	fd 01       	movw	r30, r26
    15c4:	0d c0       	rjmp	.+26     	; 0x15e0 <__udivmodsi4_ep>

000015c6 <__udivmodsi4_loop>:
    15c6:	aa 1f       	adc	r26, r26
    15c8:	bb 1f       	adc	r27, r27
    15ca:	ee 1f       	adc	r30, r30
    15cc:	ff 1f       	adc	r31, r31
    15ce:	a2 17       	cp	r26, r18
    15d0:	b3 07       	cpc	r27, r19
    15d2:	e4 07       	cpc	r30, r20
    15d4:	f5 07       	cpc	r31, r21
    15d6:	20 f0       	brcs	.+8      	; 0x15e0 <__udivmodsi4_ep>
    15d8:	a2 1b       	sub	r26, r18
    15da:	b3 0b       	sbc	r27, r19
    15dc:	e4 0b       	sbc	r30, r20
    15de:	f5 0b       	sbc	r31, r21

000015e0 <__udivmodsi4_ep>:
    15e0:	66 1f       	adc	r22, r22
    15e2:	77 1f       	adc	r23, r23
    15e4:	88 1f       	adc	r24, r24
    15e6:	99 1f       	adc	r25, r25
    15e8:	1a 94       	dec	r1
    15ea:	69 f7       	brne	.-38     	; 0x15c6 <__udivmodsi4_loop>
    15ec:	60 95       	com	r22
    15ee:	70 95       	com	r23
    15f0:	80 95       	com	r24
    15f2:	90 95       	com	r25
    15f4:	9b 01       	movw	r18, r22
    15f6:	ac 01       	movw	r20, r24
    15f8:	bd 01       	movw	r22, r26
    15fa:	cf 01       	movw	r24, r30
    15fc:	08 95       	ret

000015fe <__tablejump2__>:
    15fe:	ee 0f       	add	r30, r30
    1600:	ff 1f       	adc	r31, r31
    1602:	05 90       	lpm	r0, Z+
    1604:	f4 91       	lpm	r31, Z
    1606:	e0 2d       	mov	r30, r0
    1608:	09 94       	ijmp

0000160a <__umulhisi3>:
    160a:	a2 9f       	mul	r26, r18
    160c:	b0 01       	movw	r22, r0
    160e:	b3 9f       	mul	r27, r19
    1610:	c0 01       	movw	r24, r0
    1612:	a3 9f       	mul	r26, r19
    1614:	70 0d       	add	r23, r0
    1616:	81 1d       	adc	r24, r1
    1618:	11 24       	eor	r1, r1
    161a:	91 1d       	adc	r25, r1
    161c:	b2 9f       	mul	r27, r18
    161e:	70 0d       	add	r23, r0
    1620:	81 1d       	adc	r24, r1
    1622:	11 24       	eor	r1, r1
    1624:	91 1d       	adc	r25, r1
    1626:	08 95       	ret

00001628 <__muluhisi3>:
    1628:	0e 94 05 0b 	call	0x160a	; 0x160a <__umulhisi3>
    162c:	a5 9f       	mul	r26, r21
    162e:	90 0d       	add	r25, r0
    1630:	b4 9f       	mul	r27, r20
    1632:	90 0d       	add	r25, r0
    1634:	a4 9f       	mul	r26, r20
    1636:	80 0d       	add	r24, r0
    1638:	91 1d       	adc	r25, r1
    163a:	11 24       	eor	r1, r1
    163c:	08 95       	ret

0000163e <_exit>:
    163e:	f8 94       	cli

00001640 <__stop_program>:
    1640:	ff cf       	rjmp	.-2      	; 0x1640 <__stop_program>
